
AVR32 Template.elf:     file format elf32-avr32

Sections:
Idx Name          Size      VMA       LMA       File off  Algn
  0 .reset        00002004  80000000  80000000  00000400  2**2
                  CONTENTS, ALLOC, LOAD, READONLY, CODE
  1 .rela.got     00000000  80002004  80002004  00002404  2**2
                  CONTENTS, ALLOC, LOAD, READONLY, DATA
  2 .text         000035c8  80002004  80002004  00002404  2**2
                  CONTENTS, ALLOC, LOAD, READONLY, CODE
  3 .exception    00000200  80005600  80005600  00005a00  2**9
                  CONTENTS, ALLOC, LOAD, READONLY, CODE
  4 .rodata       0000016c  80005800  80005800  00005c00  2**2
                  CONTENTS, ALLOC, LOAD, READONLY, DATA
  5 .lalign       00000004  8000596c  8000596c  00005d6c  2**0
                  ALLOC
  6 .dalign       00000004  00000004  00000004  00000000  2**0
                  ALLOC
  7 .data         000005d0  00000008  80005970  00006008  2**2
                  CONTENTS, ALLOC, LOAD, DATA
  8 .bss          000006f0  000005d8  000005d8  00000000  2**2
                  ALLOC
  9 .heap         0000e338  00000cc8  00000cc8  00000000  2**0
                  ALLOC
 10 .comment      00000030  00000000  00000000  000065d8  2**0
                  CONTENTS, READONLY
 11 .debug_aranges 00000c50  00000000  00000000  00006608  2**0
                  CONTENTS, READONLY, DEBUGGING
 12 .debug_pubnames 00001a64  00000000  00000000  00007258  2**0
                  CONTENTS, READONLY, DEBUGGING
 13 .debug_info   00026d51  00000000  00000000  00008cbc  2**0
                  CONTENTS, READONLY, DEBUGGING
 14 .debug_abbrev 00004c23  00000000  00000000  0002fa0d  2**0
                  CONTENTS, READONLY, DEBUGGING
 15 .debug_line   0000fe45  00000000  00000000  00034630  2**0
                  CONTENTS, READONLY, DEBUGGING
 16 .debug_frame  00001dc0  00000000  00000000  00044478  2**2
                  CONTENTS, READONLY, DEBUGGING
 17 .debug_str    00007f46  00000000  00000000  00046238  2**0
                  CONTENTS, READONLY, DEBUGGING
 18 .debug_loc    0000527f  00000000  00000000  0004e17e  2**0
                  CONTENTS, READONLY, DEBUGGING
 19 .debug_macinfo 0104b597  00000000  00000000  000533fd  2**0
                  CONTENTS, READONLY, DEBUGGING
 20 .stack        00001000  0000f000  0000f000  00000000  2**0
                  ALLOC
 21 .debug_ranges 00001150  00000000  00000000  0109e994  2**0
                  CONTENTS, READONLY, DEBUGGING

Disassembly of section .reset:

80000000 <_trampoline>:
80000000:	e0 8f 10 00 	bral	80002000 <program_start>
	...

80002000 <program_start>:
80002000:	fe cf f1 10 	sub	pc,pc,-3824

Disassembly of section .text:

80002004 <board_init>:
#endif



void board_init (void)
{
80002004:	d4 01       	pushm	lr
    gpio_configure_pin (LED0_GPIO, GPIO_DIR_OUTPUT | GPIO_INIT_HIGH);
80002006:	30 3b       	mov	r11,3
80002008:	32 3c       	mov	r12,35
8000200a:	c2 3c       	rcall	80002050 <gpio_configure_pin>
8000200c:	30 3b       	mov	r11,3
    gpio_configure_pin (LED1_GPIO, GPIO_DIR_OUTPUT | GPIO_INIT_HIGH);
8000200e:	34 9c       	mov	r12,73
80002010:	c2 0c       	rcall	80002050 <gpio_configure_pin>
80002012:	30 3b       	mov	r11,3
80002014:	32 2c       	mov	r12,34
    gpio_configure_pin (LED2_GPIO, GPIO_DIR_OUTPUT | GPIO_INIT_HIGH);
80002016:	c1 dc       	rcall	80002050 <gpio_configure_pin>
80002018:	30 3b       	mov	r11,3
8000201a:	32 6c       	mov	r12,38
8000201c:	c1 ac       	rcall	80002050 <gpio_configure_pin>
    gpio_configure_pin (LED3_GPIO, GPIO_DIR_OUTPUT | GPIO_INIT_HIGH);
8000201e:	30 4b       	mov	r11,4
80002020:	32 1c       	mov	r12,33
80002022:	c1 7c       	rcall	80002050 <gpio_configure_pin>
80002024:	d8 02       	popm	pc

    gpio_configure_pin (GPIO_PUSH_BUTTON_0, (GPIO_DIR_INPUT | GPIO_PULL_UP));
80002026:	d7 03       	nop

80002028 <flashc_set_bus_freq>:
}


void flashc_set_bus_freq(unsigned int cpu_f_hz)
{
  if(cpu_f_hz >= AVR32_FLASHC_FWS_0_MAX_FREQ)
80002028:	e0 68 50 ff 	mov	r8,20735
8000202c:	ea 18 02 25 	orh	r8,0x225
80002030:	10 3c       	cp.w	r12,r8
80002032:	e0 88 00 07 	brls	80002040 <flashc_set_bus_freq+0x18>
}


void flashc_set_wait_state(unsigned int wait_state)
{
  u_avr32_flashc_fcr_t u_avr32_flashc_fcr = {AVR32_FLASHC.fcr};
80002036:	fe 68 14 00 	mov	r8,-125952
  u_avr32_flashc_fcr.FCR.fws = wait_state;
8000203a:	30 1a       	mov	r10,1
}


void flashc_set_wait_state(unsigned int wait_state)
{
  u_avr32_flashc_fcr_t u_avr32_flashc_fcr = {AVR32_FLASHC.fcr};
8000203c:	70 09       	ld.w	r9,r8[0x0]
8000203e:	c0 58       	rjmp	80002048 <flashc_set_bus_freq+0x20>
80002040:	fe 68 14 00 	mov	r8,-125952
  u_avr32_flashc_fcr.FCR.fws = wait_state;
80002044:	30 0a       	mov	r10,0
}


void flashc_set_wait_state(unsigned int wait_state)
{
  u_avr32_flashc_fcr_t u_avr32_flashc_fcr = {AVR32_FLASHC.fcr};
80002046:	70 09       	ld.w	r9,r8[0x0]
  u_avr32_flashc_fcr.FCR.fws = wait_state;
80002048:	f3 da d0 c1 	bfins	r9,r10,0x6,0x1
  AVR32_FLASHC.fcr = u_avr32_flashc_fcr.fcr;
8000204c:	91 09       	st.w	r8[0x0],r9
8000204e:	5e fc       	retal	r12

80002050 <gpio_configure_pin>:

#endif

void gpio_configure_pin(uint32_t pin, uint32_t flags)
{  
  volatile avr32_gpio_port_t *gpio_port = &GPIO.port[pin >> 5];  
80002050:	f8 08 16 05 	lsr	r8,r12,0x5
    if (flags & GPIO_PULL_DOWN)
            gpio_port->pders = 1 << (pin & 0x1F);
    else
            gpio_port->pderc = 1 << (pin & 0x1F);
#endif    
    if (flags & GPIO_PULL_UP)
80002054:	16 9a       	mov	r10,r11

#endif

void gpio_configure_pin(uint32_t pin, uint32_t flags)
{  
  volatile avr32_gpio_port_t *gpio_port = &GPIO.port[pin >> 5];  
80002056:	a9 68       	lsl	r8,0x8
    if (flags & GPIO_PULL_DOWN)
            gpio_port->pders = 1 << (pin & 0x1F);
    else
            gpio_port->pderc = 1 << (pin & 0x1F);
#endif    
    if (flags & GPIO_PULL_UP)
80002058:	e2 1a 00 04 	andl	r10,0x4,COH

#endif

void gpio_configure_pin(uint32_t pin, uint32_t flags)
{  
  volatile avr32_gpio_port_t *gpio_port = &GPIO.port[pin >> 5];  
8000205c:	e0 28 f0 00 	sub	r8,61440
80002060:	f3 dc c0 05 	bfextu	r9,r12,0x0,0x5
    if (flags & GPIO_PULL_DOWN)
            gpio_port->pders = 1 << (pin & 0x1F);
    else
            gpio_port->pderc = 1 << (pin & 0x1F);
#endif    
    if (flags & GPIO_PULL_UP)
80002064:	58 0a       	cp.w	r10,0
80002066:	c0 70       	breq	80002074 <gpio_configure_pin+0x24>
            gpio_port->puers = 1 << (pin & 0x1F);
80002068:	30 1a       	mov	r10,1
8000206a:	f4 09 09 49 	lsl	r9,r10,r9
8000206e:	f1 49 00 74 	st.w	r8[116],r9
80002072:	c0 68       	rjmp	8000207e <gpio_configure_pin+0x2e>
    else
            gpio_port->puerc = 1 << (pin & 0x1F);
80002074:	30 1a       	mov	r10,1
80002076:	f4 09 09 49 	lsl	r9,r10,r9
8000207a:	f1 49 00 78 	st.w	r8[120],r9
            else
                    gpio_port->odcr1c = 1 << (pin & 0x1F);
#endif

    /* Select interrupt level for group */
    if (flags & GPIO_INTERRUPT) {
8000207e:	ed bb 00 07 	bld	r11,0x7
80002082:	c2 21       	brne	800020c6 <gpio_configure_pin+0x76>
            if (flags & GPIO_BOTHEDGES)
80002084:	16 99       	mov	r9,r11
80002086:	e2 19 01 80 	andl	r9,0x180,COH
8000208a:	c0 70       	breq	80002098 <gpio_configure_pin+0x48>
            {
                   gpio_port->imr0c = 1 << (pin & 0x1F);
8000208c:	30 19       	mov	r9,1
8000208e:	f2 0c 09 49 	lsl	r9,r9,r12
80002092:	f1 49 00 a8 	st.w	r8[168],r9
80002096:	c0 a8       	rjmp	800020aa <gpio_configure_pin+0x5a>
                   gpio_port->imr1c = 1 << (pin & 0x1F);
            }
            else if (flags & GPIO_RISING)
80002098:	16 99       	mov	r9,r11
8000209a:	e2 19 02 80 	andl	r9,0x280,COH
8000209e:	c0 90       	breq	800020b0 <gpio_configure_pin+0x60>
            {
                   gpio_port->imr0s = 1 << (pin & 0x1F);
800020a0:	30 19       	mov	r9,1
800020a2:	f2 0c 09 49 	lsl	r9,r9,r12
800020a6:	f1 49 00 a4 	st.w	r8[164],r9
                   gpio_port->imr1c = 1 << (pin & 0x1F);
800020aa:	f1 49 00 b8 	st.w	r8[184],r9
800020ae:	c0 c8       	rjmp	800020c6 <gpio_configure_pin+0x76>
            }
            else if (flags & GPIO_FALLING)
800020b0:	16 99       	mov	r9,r11
800020b2:	e2 19 03 80 	andl	r9,0x380,COH
800020b6:	c0 80       	breq	800020c6 <gpio_configure_pin+0x76>
            {
                   gpio_port->imr0c = 1 << (pin & 0x1F);
800020b8:	30 19       	mov	r9,1
800020ba:	f2 0c 09 49 	lsl	r9,r9,r12
800020be:	f1 49 00 a8 	st.w	r8[168],r9
                   gpio_port->imr1s = 1 << (pin & 0x1F);
800020c2:	f1 49 00 b4 	st.w	r8[180],r9
            }
    }

    /* Select direction and initial pin state */
    if (flags & GPIO_DIR_OUTPUT) {
800020c6:	ed bb 00 00 	bld	r11,0x0
800020ca:	c1 81       	brne	800020fa <gpio_configure_pin+0xaa>
            if (flags & GPIO_INIT_HIGH)
800020cc:	e2 1b 00 02 	andl	r11,0x2,COH
800020d0:	f3 dc c0 05 	bfextu	r9,r12,0x0,0x5
800020d4:	58 0b       	cp.w	r11,0
800020d6:	c0 70       	breq	800020e4 <gpio_configure_pin+0x94>
                    gpio_port->ovrs = 1 << (pin & 0x1F);
800020d8:	30 1a       	mov	r10,1
800020da:	f4 09 09 49 	lsl	r9,r10,r9
800020de:	f1 49 00 54 	st.w	r8[84],r9
800020e2:	c0 68       	rjmp	800020ee <gpio_configure_pin+0x9e>
            else
                    gpio_port->ovrc = 1 << (pin & 0x1F);
800020e4:	30 1a       	mov	r10,1
800020e6:	f4 09 09 49 	lsl	r9,r10,r9
800020ea:	f1 49 00 58 	st.w	r8[88],r9
            gpio_port->oders = 1 << (pin & 0x1F);
800020ee:	30 19       	mov	r9,1
800020f0:	f2 0c 09 49 	lsl	r9,r9,r12
800020f4:	f1 49 00 44 	st.w	r8[68],r9
800020f8:	c0 68       	rjmp	80002104 <gpio_configure_pin+0xb4>
    } else {
            gpio_port->oderc = 1 << (pin & 0x1F);
800020fa:	30 19       	mov	r9,1
800020fc:	f2 0c 09 49 	lsl	r9,r9,r12
80002100:	f1 49 00 48 	st.w	r8[72],r9
    }

    /* Enable GPIO */
    gpio_port->gpers = 1 << (pin & 0x1F);
80002104:	30 19       	mov	r9,1
80002106:	f2 0c 09 4c 	lsl	r12,r9,r12
8000210a:	91 1c       	st.w	r8[0x4],r12
}
8000210c:	5e fc       	retal	r12

8000210e <gpio_get_pin_value>:
    gpio_port->gpers = mask;
}

int gpio_get_pin_value(uint32_t pin)
{
  volatile avr32_gpio_port_t *gpio_port = &GPIO.port[pin >> 5];
8000210e:	f8 08 16 05 	lsr	r8,r12,0x5
80002112:	a9 68       	lsl	r8,0x8
80002114:	e0 28 f0 00 	sub	r8,61440
  return (gpio_port->pvr >> (pin & 0x1F)) & 1;
80002118:	71 88       	ld.w	r8,r8[0x60]
8000211a:	f0 0c 0a 4c 	lsr	r12,r8,r12
}
8000211e:	f9 dc c0 01 	bfextu	r12,r12,0x0,0x1
80002122:	5e fc       	retal	r12

80002124 <gpio_set_pin_high>:
}

void gpio_set_pin_high(uint32_t pin)
{
  volatile avr32_gpio_port_t *gpio_port = &GPIO.port[pin >> 5];
  gpio_port->ovrs  = 1 << (pin & 0x1F); // Value to be driven on the I/O line: 1.
80002124:	30 18       	mov	r8,1
80002126:	f0 0c 09 48 	lsl	r8,r8,r12
  gpio_port->gpers = 1 << (pin & 0x1F); // The GPIO module controls that pin.
}

void gpio_set_pin_high(uint32_t pin)
{
  volatile avr32_gpio_port_t *gpio_port = &GPIO.port[pin >> 5];
8000212a:	a5 9c       	lsr	r12,0x5
8000212c:	a9 6c       	lsl	r12,0x8
8000212e:	e0 2c f0 00 	sub	r12,61440
  gpio_port->ovrs  = 1 << (pin & 0x1F); // Value to be driven on the I/O line: 1.
80002132:	f9 48 00 54 	st.w	r12[84],r8
}
80002136:	5e fc       	retal	r12

80002138 <gpio_set_pin_low>:


void gpio_set_pin_low(uint32_t pin)
{
  volatile avr32_gpio_port_t *gpio_port = &GPIO.port[pin >> 5];
  gpio_port->ovrc  = 1 << (pin & 0x1F); // Value to be driven on the I/O line: 0.
80002138:	30 18       	mov	r8,1
8000213a:	f0 0c 09 48 	lsl	r8,r8,r12
}


void gpio_set_pin_low(uint32_t pin)
{
  volatile avr32_gpio_port_t *gpio_port = &GPIO.port[pin >> 5];
8000213e:	a5 9c       	lsr	r12,0x5
80002140:	a9 6c       	lsl	r12,0x8
80002142:	e0 2c f0 00 	sub	r12,61440
  gpio_port->ovrc  = 1 << (pin & 0x1F); // Value to be driven on the I/O line: 0.
80002146:	f9 48 00 58 	st.w	r12[88],r8
}
8000214a:	5e fc       	retal	r12

8000214c <gpio_get_pin_interrupt_flag>:
}


int gpio_get_pin_interrupt_flag(uint32_t pin)
{
  volatile avr32_gpio_port_t *gpio_port = &GPIO.port[pin >> 5];
8000214c:	f8 08 16 05 	lsr	r8,r12,0x5
80002150:	a9 68       	lsl	r8,0x8
80002152:	e0 28 f0 00 	sub	r8,61440
  return (gpio_port->ifr >> (pin & 0x1F)) & 1;
80002156:	f0 f8 00 d0 	ld.w	r8,r8[208]
8000215a:	f0 0c 0a 4c 	lsr	r12,r8,r12
}
8000215e:	f9 dc c0 01 	bfextu	r12,r12,0x0,0x1
80002162:	5e fc       	retal	r12

80002164 <gpio_clear_pin_interrupt_flag>:
  gpio_port->ifrc = 1 << (pin & 0x1F);

  // Restore interrupt enable register.
  gpio_port->ier = gpio_ier;
#else
  gpio_port->ifrc = 1 << (pin & 0x1F);
80002164:	30 18       	mov	r8,1
80002166:	f0 0c 09 48 	lsl	r8,r8,r12
}


void gpio_clear_pin_interrupt_flag(uint32_t pin)
{
  volatile avr32_gpio_port_t *gpio_port = &GPIO.port[pin >> 5];
8000216a:	a5 9c       	lsr	r12,0x5
8000216c:	a9 6c       	lsl	r12,0x8
8000216e:	e0 2c f0 00 	sub	r12,61440
  gpio_port->ifrc = 1 << (pin & 0x1F);

  // Restore interrupt enable register.
  gpio_port->ier = gpio_ier;
#else
  gpio_port->ifrc = 1 << (pin & 0x1F);
80002172:	f9 48 00 d8 	st.w	r12[216],r8
#endif
}
80002176:	5e fc       	retal	r12

80002178 <_unhandled_interrupt>:
__attribute__((__interrupt__))
#elif (defined __ICCAVR32__)
__interrupt
#endif
static void _unhandled_interrupt(void)
{
80002178:	c0 08       	rjmp	80002178 <_unhandled_interrupt>
8000217a:	d7 03       	nop

8000217c <INTC_register_interrupt>:
  // Determine the group of the IRQ.
  unsigned int int_grp = irq / AVR32_INTC_MAX_NUM_IRQS_PER_GRP;

  // Store in _int_line_handler_table_x the pointer to the interrupt handler, so
  // that _get_interrupt_handler can retrieve it when the interrupt is vectored.
  _int_handler_table[int_grp]._int_line_handler_table[irq % AVR32_INTC_MAX_NUM_IRQS_PER_GRP] = handler;
8000217c:	f3 db c0 05 	bfextu	r9,r11,0x0,0x5
80002180:	48 98       	lddpc	r8,800021a4 <INTC_register_interrupt+0x28>


void INTC_register_interrupt(__int_handler handler, unsigned int irq, unsigned int int_level)
{
  // Determine the group of the IRQ.
  unsigned int int_grp = irq / AVR32_INTC_MAX_NUM_IRQS_PER_GRP;
80002182:	a5 9b       	lsr	r11,0x5

  // Store in _int_line_handler_table_x the pointer to the interrupt handler, so
  // that _get_interrupt_handler can retrieve it when the interrupt is vectored.
  _int_handler_table[int_grp]._int_line_handler_table[irq % AVR32_INTC_MAX_NUM_IRQS_PER_GRP] = handler;
80002184:	f0 0b 00 38 	add	r8,r8,r11<<0x3
80002188:	70 18       	ld.w	r8,r8[0x4]
8000218a:	f0 09 09 2c 	st.w	r8[r9<<0x2],r12
  // Program the corresponding IPRX register to set the interrupt priority level
  // and the interrupt vector offset that will be fetched by the core interrupt
  // system.
  // NOTE: The _intx functions are intermediate assembly functions between the
  // core interrupt system and the user interrupt handler.
  AVR32_INTC.ipr[int_grp] = ipr_val[int_level & (AVR32_INTC_IPR_INTLEVEL_MASK >> AVR32_INTC_IPR_INTLEVEL_OFFSET)];
8000218e:	fe c8 ca 52 	sub	r8,pc,-13742
80002192:	f5 da c0 02 	bfextu	r10,r10,0x0,0x2
80002196:	f0 0a 03 29 	ld.w	r9,r8[r10<<0x2]
8000219a:	fe 78 08 00 	mov	r8,-63488
8000219e:	f0 0b 09 29 	st.w	r8[r11<<0x2],r9
}
800021a2:	5e fc       	retal	r12
800021a4:	80 00       	ld.sh	r0,r0[0x0]
800021a6:	58 00       	cp.w	r0,0

800021a8 <INTC_init_interrupts>:
800021a8:	d4 21       	pushm	r4-r7,lr
800021aa:	fe c8 cb aa 	sub	r8,pc,-13398
}

//! Init EVBA address. This sequence might also be done in the utils/startup/startup_uc3.S file.
static __inline__ void INTC_init_evba(void)
{
  Set_system_register(AVR32_EVBA, (int)&_evba );
800021ae:	e3 b8 00 01 	mtsr	0x4,r8
    }

    // Set the interrupt group priority register to its default value.
    // By default, all interrupt groups are linked to the interrupt priority
    // level 0 and to the interrupt vector _int0.
    AVR32_INTC.ipr[int_grp] = ipr_val[AVR32_INTC_INT0];
800021b2:	fe c8 ca 76 	sub	r8,pc,-13706
  {
    // For all interrupt request lines of each group,
    for (int_req = 0; int_req < _int_handler_table[int_grp].num_irqs; int_req++)
    {
      // Assign _unhandled_interrupt as default interrupt handler.
      _int_handler_table[int_grp]._int_line_handler_table[int_req] = &_unhandled_interrupt;
800021b6:	48 d9       	lddpc	r9,800021e8 <INTC_init_interrupts+0x40>
    }

    // Set the interrupt group priority register to its default value.
    // By default, all interrupt groups are linked to the interrupt priority
    // level 0 and to the interrupt vector _int0.
    AVR32_INTC.ipr[int_grp] = ipr_val[AVR32_INTC_INT0];
800021b8:	70 0e       	ld.w	lr,r8[0x0]
800021ba:	fe cc 00 42 	sub	r12,pc,66
800021be:	30 08       	mov	r8,0
  {
    // For all interrupt request lines of each group,
    for (int_req = 0; int_req < _int_handler_table[int_grp].num_irqs; int_req++)
    {
      // Assign _unhandled_interrupt as default interrupt handler.
      _int_handler_table[int_grp]._int_line_handler_table[int_req] = &_unhandled_interrupt;
800021c0:	fe 7b 08 00 	mov	r11,-63488
800021c4:	c0 e8       	rjmp	800021e0 <INTC_init_interrupts+0x38>

  // For all interrupt groups,
  for (int_grp = 0; int_grp < AVR32_INTC_NUM_INT_GRPS; int_grp++)
  {
    // For all interrupt request lines of each group,
    for (int_req = 0; int_req < _int_handler_table[int_grp].num_irqs; int_req++)
800021c6:	72 16       	ld.w	r6,r9[0x4]
    {
      // Assign _unhandled_interrupt as default interrupt handler.
      _int_handler_table[int_grp]._int_line_handler_table[int_req] = &_unhandled_interrupt;
800021c8:	ec 0a 00 26 	add	r6,r6,r10<<0x2

  // For all interrupt groups,
  for (int_grp = 0; int_grp < AVR32_INTC_NUM_INT_GRPS; int_grp++)
  {
    // For all interrupt request lines of each group,
    for (int_req = 0; int_req < _int_handler_table[int_grp].num_irqs; int_req++)
800021cc:	2f fa       	sub	r10,-1
    }

    // Set the interrupt group priority register to its default value.
    // By default, all interrupt groups are linked to the interrupt priority
    // level 0 and to the interrupt vector _int0.
    AVR32_INTC.ipr[int_grp] = ipr_val[AVR32_INTC_INT0];
800021ce:	8d 0c       	st.w	r6[0x0],r12
800021d0:	0e 3a       	cp.w	r10,r7
  unsigned int int_grp, int_req;

  INTC_init_evba();

  // For all interrupt groups,
  for (int_grp = 0; int_grp < AVR32_INTC_NUM_INT_GRPS; int_grp++)
800021d2:	cf a3       	brcs	800021c6 <INTC_init_interrupts+0x1e>
800021d4:	f6 08 09 2e 	st.w	r11[r8<<0x2],lr
800021d8:	2f 89       	sub	r9,-8
  {
    // For all interrupt request lines of each group,
    for (int_req = 0; int_req < _int_handler_table[int_grp].num_irqs; int_req++)
800021da:	2f f8       	sub	r8,-1
800021dc:	59 e8       	cp.w	r8,30
800021de:	c0 40       	breq	800021e6 <INTC_init_interrupts+0x3e>
800021e0:	72 07       	ld.w	r7,r9[0x0]
800021e2:	30 0a       	mov	r10,0
800021e4:	cf 6b       	rjmp	800021d0 <INTC_init_interrupts+0x28>
800021e6:	d8 22       	popm	r4-r7,pc
800021e8:	80 00       	ld.sh	r0,r0[0x0]
800021ea:	58 00       	cp.w	r0,0

800021ec <_get_interrupt_handler>:
800021ec:	e0 68 00 83 	mov	r8,131
800021f0:	fe 79 08 00 	mov	r9,-63488
__int_handler _get_interrupt_handler(unsigned int int_level)
{
  // ICR3 is mapped first, ICR0 last.
  // Code in exception.S puts int_level in R12 which is used by AVR32-GCC to
  // pass a single argument to a function.
  unsigned int int_grp = AVR32_INTC.icr[AVR32_INTC_INT3 - int_level];
800021f4:	f0 0c 01 0c 	sub	r12,r8,r12
800021f8:	f2 0c 03 28 	ld.w	r8,r9[r12<<0x2]
  unsigned int int_req = AVR32_INTC.irr[int_grp];
800021fc:	f0 ca ff c0 	sub	r10,r8,-64
80002200:	f2 0a 03 2c 	ld.w	r12,r9[r10<<0x2]
  // exception.S will provide the interrupt handler with a clean interrupt stack
  // frame, with nothing more pushed onto the stack. The interrupt handler must
  // manage the `rete' instruction, what can be done thanks to pure assembly,
  // inline assembly or the `__attribute__((__interrupt__))' C function
  // attribute.
  return (int_req) ? _int_handler_table[int_grp]._int_line_handler_table[32 - clz(int_req) - 1] : NULL;
80002204:	58 0c       	cp.w	r12,0
80002206:	5e 0c       	reteq	r12
80002208:	48 69       	lddpc	r9,80002220 <_get_interrupt_handler+0x34>
8000220a:	f8 0c 12 00 	clz	r12,r12
8000220e:	f2 08 00 38 	add	r8,r9,r8<<0x3
80002212:	f8 0c 11 1f 	rsub	r12,r12,31
80002216:	70 18       	ld.w	r8,r8[0x4]
80002218:	f0 0c 03 2c 	ld.w	r12,r8[r12<<0x2]
}
8000221c:	5e fc       	retal	r12
8000221e:	d7 03       	nop
80002220:	80 00       	ld.sh	r0,r0[0x0]
80002222:	58 00       	cp.w	r0,0

80002224 <udd_include_vbus_monitoring>:


bool udd_include_vbus_monitoring(void)
{
	return true;
}
80002224:	5e ff       	retal	1

80002226 <udd_is_high_speed>:
#ifdef USB_DEVICE_HS_SUPPORT
	return !Is_udd_full_speed_mode();
#else
	return false;
#endif
}
80002226:	5e fd       	retal	0

80002228 <udd_set_address>:


void udd_set_address(uint8_t address)
{
	udd_disable_address();
80002228:	fe 68 00 00 	mov	r8,-131072
8000222c:	70 09       	ld.w	r9,r8[0x0]
8000222e:	a7 d9       	cbr	r9,0x7
80002230:	91 09       	st.w	r8[0x0],r9
	udd_configure_address(address);
80002232:	f9 dc c0 07 	bfextu	r12,r12,0x0,0x7
80002236:	70 09       	ld.w	r9,r8[0x0]
80002238:	e0 19 ff 80 	andl	r9,0xff80
8000223c:	f9 e9 10 09 	or	r9,r12,r9
80002240:	91 09       	st.w	r8[0x0],r9
	udd_enable_address();
80002242:	70 09       	ld.w	r9,r8[0x0]
80002244:	a7 b9       	sbr	r9,0x7
80002246:	91 09       	st.w	r8[0x0],r9
}
80002248:	5e fc       	retal	r12

8000224a <udd_getaddress>:


uint8_t udd_getaddress(void)
{
	return udd_get_configured_address();
8000224a:	fe 68 00 00 	mov	r8,-131072
8000224e:	70 0c       	ld.w	r12,r8[0x0]
}
80002250:	f9 dc c0 07 	bfextu	r12,r12,0x0,0x7
80002254:	5e fc       	retal	r12

80002256 <udd_get_frame_number>:


uint16_t udd_get_frame_number(void)
{
	return udd_frame_number();
80002256:	fe 68 00 00 	mov	r8,-131072
8000225a:	70 8c       	ld.w	r12,r8[0x20]
}
8000225c:	f9 dc c0 6b 	bfextu	r12,r12,0x3,0xb
80002260:	5e fc       	retal	r12

80002262 <udd_get_micro_frame_number>:

uint16_t udd_get_micro_frame_number(void)
{
	return udd_micro_frame_number();
80002262:	fe 68 00 00 	mov	r8,-131072
80002266:	70 8c       	ld.w	r12,r8[0x20]
}
80002268:	f9 dc c0 0e 	bfextu	r12,r12,0x0,0xe
8000226c:	5e fc       	retal	r12
8000226e:	d7 03       	nop

80002270 <udd_set_setup_payload>:
}


void udd_set_setup_payload( uint8_t *payload,	uint16_t payload_size )
{
	udd_g_ctrlreq.payload = payload;
80002270:	48 28       	lddpc	r8,80002278 <udd_set_setup_payload+0x8>
	udd_g_ctrlreq.payload_size = payload_size;
80002272:	b0 6b       	st.h	r8[0xc],r11
}


void udd_set_setup_payload( uint8_t *payload,	uint16_t payload_size )
{
	udd_g_ctrlreq.payload = payload;
80002274:	91 2c       	st.w	r8[0x8],r12
	udd_g_ctrlreq.payload_size = payload_size;
}
80002276:	5e fc       	retal	r12
80002278:	00 00       	add	r0,r0
8000227a:	0c 98       	mov	r8,r6

8000227c <udd_ep_is_halted>:
}


bool udd_ep_is_halted(udd_ep_id_t ep)
{
	return Is_udd_endpoint_stall_requested(ep & USB_EP_ADDR_MASK);
8000227c:	f9 dc c0 04 	bfextu	r12,r12,0x0,0x4
80002280:	a3 6c       	lsl	r12,0x2
80002282:	e0 3c fe 40 	sub	r12,130624
80002286:	78 0c       	ld.w	r12,r12[0x0]
}
80002288:	f9 dc c2 61 	bfextu	r12,r12,0x13,0x1
8000228c:	5e fc       	retal	r12
8000228e:	d7 03       	nop

80002290 <udd_ep_set_halt>:


bool udd_ep_set_halt(udd_ep_id_t ep)
{
80002290:	d4 21       	pushm	r4-r7,lr
	udd_ep_job_t *ptr_job;
	uint8_t index = ep & USB_EP_ADDR_MASK;

	if (USB_DEVICE_MAX_EP < index)
80002292:	30 39       	mov	r9,3


bool udd_ep_set_halt(udd_ep_id_t ep)
{
	udd_ep_job_t *ptr_job;
	uint8_t index = ep & USB_EP_ADDR_MASK;
80002294:	f1 dc c0 04 	bfextu	r8,r12,0x0,0x4

	if (USB_DEVICE_MAX_EP < index)
80002298:	f2 08 18 00 	cp.b	r8,r9
8000229c:	e0 8b 00 35 	brhi	80002306 <udd_ep_set_halt+0x76>
		return false;

	ptr_job = &udd_ep_job[index - 1];
800022a0:	f0 cb 00 01 	sub	r11,r8,1
800022a4:	49 99       	lddpc	r9,80002308 <udd_ep_set_halt+0x78>
800022a6:	a5 6b       	lsl	r11,0x4
800022a8:	f2 0b 00 0b 	add	r11,r9,r11
	if (ptr_job->busy == true) {
800022ac:	76 0c       	ld.w	r12,r11[0x0]
800022ae:	58 0c       	cp.w	r12,0
800022b0:	c2 b5       	brlt	80002306 <udd_ep_set_halt+0x76>
		return false;	// Job on going, stall impossible
	}
	
	if (0 != udd_nb_busy_bank(index)) {
800022b2:	fe 6e 01 30 	mov	lr,-130768
800022b6:	f0 0a 15 02 	lsl	r10,r8,0x2
800022ba:	f4 0e 00 09 	add	r9,r10,lr
800022be:	72 0e       	ld.w	lr,r9[0x0]
800022c0:	fe 67 01 f0 	mov	r7,-130576
800022c4:	fd de c1 82 	bfextu	lr,lr,0xc,0x2
800022c8:	f4 07 00 09 	add	r9,r10,r7
800022cc:	58 0e       	cp.w	lr,0
800022ce:	c0 f0       	breq	800022ec <udd_ep_set_halt+0x5c>
		// Wait end of transfer on USB line before stall endpoint
		// Flag a stall requested
		ptr_job->stall_requested = true;
800022d0:	18 9a       	mov	r10,r12
800022d2:	30 1c       	mov	r12,1
800022d4:	f5 dc d3 81 	bfins	r10,r12,0x1c,0x1
800022d8:	97 0a       	st.w	r11[0x0],r10
		udd_enable_bank_interrupt(index);
800022da:	e0 6a 10 00 	mov	r10,4096
800022de:	93 0a       	st.w	r9[0x0],r10
		udd_enable_endpoint_interrupt(index);
800022e0:	f4 08 09 48 	lsl	r8,r10,r8
800022e4:	fe 69 00 00 	mov	r9,-131072
800022e8:	93 68       	st.w	r9[0x18],r8
800022ea:	d8 22       	popm	r4-r7,pc
	} else {
		// Stall endpoint
		udd_disable_endpoint_bank_autoswitch(index);
800022ec:	e0 3a ff 00 	sub	r10,130816
800022f0:	74 08       	ld.w	r8,r10[0x0]
800022f2:	a9 d8       	cbr	r8,0x9
800022f4:	95 08       	st.w	r10[0x0],r8
		udd_enable_stall_handshake(index);
800022f6:	e8 68 00 00 	mov	r8,524288
800022fa:	93 08       	st.w	r9[0x0],r8
		udd_reset_data_toggle(index);
800022fc:	30 1c       	mov	r12,1
800022fe:	e4 68 00 00 	mov	r8,262144
80002302:	93 08       	st.w	r9[0x0],r8
80002304:	d8 22       	popm	r4-r7,pc
80002306:	d8 2a       	popm	r4-r7,pc,r12=0
80002308:	00 00       	add	r0,r0
8000230a:	06 e8       	st.h	--r3,r8

8000230c <udd_ep_clear_halt>:
	return true;
}


bool udd_ep_clear_halt(udd_ep_id_t ep)
{
8000230c:	d4 01       	pushm	lr
	udd_ep_job_t *ptr_job;

	ep &= USB_EP_ADDR_MASK;
	if (USB_DEVICE_MAX_EP < ep)
8000230e:	30 38       	mov	r8,3

bool udd_ep_clear_halt(udd_ep_id_t ep)
{
	udd_ep_job_t *ptr_job;

	ep &= USB_EP_ADDR_MASK;
80002310:	f9 dc c0 04 	bfextu	r12,r12,0x0,0x4
	if (USB_DEVICE_MAX_EP < ep)
80002314:	f0 0c 18 00 	cp.b	r12,r8
80002318:	e0 88 00 03 	brls	8000231e <udd_ep_clear_halt+0x12>
8000231c:	d8 0a       	popm	pc,r12=0
		return false;
	ptr_job = &udd_ep_job[ep - 1];

	if (Is_udd_endpoint_stall_requested(ep)	// Endpoint stalled
8000231e:	fe 6a 01 c0 	mov	r10,-130624
80002322:	f8 09 15 02 	lsl	r9,r12,0x2
80002326:	f2 0a 00 08 	add	r8,r9,r10
8000232a:	70 0a       	ld.w	r10,r8[0x0]
	udd_ep_job_t *ptr_job;

	ep &= USB_EP_ADDR_MASK;
	if (USB_DEVICE_MAX_EP < ep)
		return false;
	ptr_job = &udd_ep_job[ep - 1];
8000232c:	20 1c       	sub	r12,1
8000232e:	49 58       	lddpc	r8,80002380 <udd_ep_clear_halt+0x74>
80002330:	a5 6c       	lsl	r12,0x4

	if (Is_udd_endpoint_stall_requested(ep)	// Endpoint stalled
80002332:	e6 1a 00 08 	andh	r10,0x8,COH
	udd_ep_job_t *ptr_job;

	ep &= USB_EP_ADDR_MASK;
	if (USB_DEVICE_MAX_EP < ep)
		return false;
	ptr_job = &udd_ep_job[ep - 1];
80002336:	18 08       	add	r8,r12

	if (Is_udd_endpoint_stall_requested(ep)	// Endpoint stalled
80002338:	58 0a       	cp.w	r10,0
8000233a:	c0 51       	brne	80002344 <udd_ep_clear_halt+0x38>
			|| ptr_job->stall_requested) {	// Endpoint stall is requested
8000233c:	70 0a       	ld.w	r10,r8[0x0]
8000233e:	ed ba 00 1c 	bld	r10,0x1c
80002342:	c1 d1       	brne	8000237c <udd_ep_clear_halt+0x70>
		// Remove request to stall
		ptr_job->stall_requested = false;
80002344:	70 0b       	ld.w	r11,r8[0x0]
		// Remove stall
		udd_disable_stall_handshake(ep);
80002346:	fe 6c 02 20 	mov	r12,-130528
	ptr_job = &udd_ep_job[ep - 1];

	if (Is_udd_endpoint_stall_requested(ep)	// Endpoint stalled
			|| ptr_job->stall_requested) {	// Endpoint stall is requested
		// Remove request to stall
		ptr_job->stall_requested = false;
8000234a:	30 0a       	mov	r10,0
8000234c:	f7 da d3 81 	bfins	r11,r10,0x1c,0x1
80002350:	91 0b       	st.w	r8[0x0],r11
		// Remove stall
		udd_disable_stall_handshake(ep);
80002352:	f2 0c 00 0b 	add	r11,r9,r12
80002356:	e8 6c 00 00 	mov	r12,524288
8000235a:	97 0c       	st.w	r11[0x0],r12
		udd_enable_endpoint_bank_autoswitch(ep);	
8000235c:	fe 6c 01 00 	mov	r12,-130816
80002360:	f2 0c 00 0b 	add	r11,r9,r12
80002364:	76 09       	ld.w	r9,r11[0x0]
80002366:	a9 b9       	sbr	r9,0x9
80002368:	97 09       	st.w	r11[0x0],r9
		// If a job is register on clear halt action
		// then execute callback
		if (ptr_job->busy == true) {
8000236a:	70 09       	ld.w	r9,r8[0x0]
8000236c:	58 09       	cp.w	r9,0
8000236e:	c0 74       	brge	8000237c <udd_ep_clear_halt+0x70>
			ptr_job->busy = false;
80002370:	f3 da d3 e1 	bfins	r9,r10,0x1f,0x1
80002374:	91 09       	st.w	r8[0x0],r9
			ptr_job->call_nohalt();
80002376:	70 38       	ld.w	r8,r8[0xc]
80002378:	5d 18       	icall	r8
8000237a:	da 0a       	popm	pc,r12=1
8000237c:	da 0a       	popm	pc,r12=1
8000237e:	d7 03       	nop
80002380:	00 00       	add	r0,r0
80002382:	06 e8       	st.h	--r3,r8

80002384 <udd_ep_finish_job>:
	udd_ep_finish_job(&udd_ep_job[ep - 1], true);
}


static void udd_ep_finish_job(udd_ep_job_t * ptr_job, bool b_abort)
{
80002384:	d4 01       	pushm	lr
80002386:	18 99       	mov	r9,r12
80002388:	16 9c       	mov	r12,r11
	if (ptr_job->busy == false)
8000238a:	72 08       	ld.w	r8,r9[0x0]
8000238c:	58 08       	cp.w	r8,0
8000238e:	c0 a4       	brge	800023a2 <udd_ep_finish_job+0x1e>
		return;	// No on-going job
	ptr_job->busy = false;
80002390:	30 0a       	mov	r10,0
80002392:	f1 da d3 e1 	bfins	r8,r10,0x1f,0x1
80002396:	93 08       	st.w	r9[0x0],r8
	if (NULL == ptr_job->call_trans)
80002398:	72 38       	ld.w	r8,r9[0xc]
8000239a:	58 08       	cp.w	r8,0
8000239c:	c0 30       	breq	800023a2 <udd_ep_finish_job+0x1e>
		return;	// No callback linked to job
	ptr_job->call_trans((b_abort) ? UDD_EP_TRANSFER_ABORT :
8000239e:	72 2b       	ld.w	r11,r9[0x8]
800023a0:	5d 18       	icall	r8
800023a2:	d8 02       	popm	pc

800023a4 <udd_ep_free>:
	return true;
}


void udd_ep_free(udd_ep_id_t ep)
{
800023a4:	d4 01       	pushm	lr
	udd_disable_endpoint(ep & USB_EP_ADDR_MASK);
800023a6:	fe 69 00 00 	mov	r9,-131072
800023aa:	f1 dc c0 04 	bfextu	r8,r12,0x0,0x4
800023ae:	30 1b       	mov	r11,1
800023b0:	72 7c       	ld.w	r12,r9[0x1c]
800023b2:	f6 08 09 4a 	lsl	r10,r11,r8
800023b6:	5c da       	com	r10
800023b8:	18 6a       	and	r10,r12
800023ba:	93 7a       	st.w	r9[0x1c],r10

static void udd_ep_abort_job(udd_ep_id_t ep)
{
	ep &= USB_EP_ADDR_MASK;
	// Abort job on endpoint
	udd_ep_finish_job(&udd_ep_job[ep - 1], true);
800023bc:	f0 c9 00 01 	sub	r9,r8,1
800023c0:	a5 69       	lsl	r9,0x4


void udd_ep_free(udd_ep_id_t ep)
{
	udd_disable_endpoint(ep & USB_EP_ADDR_MASK);
	udd_unallocate_memory(ep & USB_EP_ADDR_MASK);
800023c2:	a3 68       	lsl	r8,0x2

static void udd_ep_abort_job(udd_ep_id_t ep)
{
	ep &= USB_EP_ADDR_MASK;
	// Abort job on endpoint
	udd_ep_finish_job(&udd_ep_job[ep - 1], true);
800023c4:	48 5c       	lddpc	r12,800023d8 <udd_ep_free+0x34>


void udd_ep_free(udd_ep_id_t ep)
{
	udd_disable_endpoint(ep & USB_EP_ADDR_MASK);
	udd_unallocate_memory(ep & USB_EP_ADDR_MASK);
800023c6:	e0 38 ff 00 	sub	r8,130816

static void udd_ep_abort_job(udd_ep_id_t ep)
{
	ep &= USB_EP_ADDR_MASK;
	// Abort job on endpoint
	udd_ep_finish_job(&udd_ep_job[ep - 1], true);
800023ca:	12 0c       	add	r12,r9


void udd_ep_free(udd_ep_id_t ep)
{
	udd_disable_endpoint(ep & USB_EP_ADDR_MASK);
	udd_unallocate_memory(ep & USB_EP_ADDR_MASK);
800023cc:	70 09       	ld.w	r9,r8[0x0]
800023ce:	a1 d9       	cbr	r9,0x1
800023d0:	91 09       	st.w	r8[0x0],r9

static void udd_ep_abort_job(udd_ep_id_t ep)
{
	ep &= USB_EP_ADDR_MASK;
	// Abort job on endpoint
	udd_ep_finish_job(&udd_ep_job[ep - 1], true);
800023d2:	cd 9f       	rcall	80002384 <udd_ep_finish_job>
800023d4:	d8 02       	popm	pc
void udd_ep_free(udd_ep_id_t ep)
{
	udd_disable_endpoint(ep & USB_EP_ADDR_MASK);
	udd_unallocate_memory(ep & USB_EP_ADDR_MASK);
	udd_ep_abort_job(ep);
}
800023d6:	d7 03       	nop
800023d8:	00 00       	add	r0,r0
800023da:	06 e8       	st.h	--r3,r8

800023dc <udd_ep_run>:
800023dc:	d4 31       	pushm	r0-r7,lr
800023de:	20 1d       	sub	sp,4
	udd_ep_job_t *ptr_job;
	irqflags_t flags;

	b_dir_in = (USB_EP_DIR_IN == (ep & USB_EP_DIR_IN));
	ep &= USB_EP_ADDR_MASK;
	if (USB_DEVICE_MAX_EP < ep)
800023e0:	30 3e       	mov	lr,3
	uint32_t udd_dma_ctrl = 0;
	udd_ep_job_t *ptr_job;
	irqflags_t flags;

	b_dir_in = (USB_EP_DIR_IN == (ep & USB_EP_DIR_IN));
	ep &= USB_EP_ADDR_MASK;
800023e2:	ef dc c0 04 	bfextu	r7,r12,0x0,0x4
	if (USB_DEVICE_MAX_EP < ep)
800023e6:	0e 96       	mov	r6,r7
800023e8:	fc 07 18 00 	cp.b	r7,lr
800023ec:	e0 8b 00 8c 	brhi	80002504 <udd_ep_run+0x128>
		return false;

	// Get job about endpoint
	ptr_job = &udd_ep_job[ep - 1];

	if ((!Is_udd_endpoint_enabled(ep))
800023f0:	fe 63 00 00 	mov	r3,-131072
800023f4:	66 7e       	ld.w	lr,r3[0x1c]
800023f6:	30 16       	mov	r6,1
800023f8:	ec 07 09 45 	lsl	r5,r6,r7
800023fc:	eb ee 00 0e 	and	lr,r5,lr
80002400:	e0 80 00 82 	breq	80002504 <udd_ep_run+0x128>
			|| Is_udd_endpoint_stall_requested(ep)
80002404:	ee 0e 15 02 	lsl	lr,r7,0x2
80002408:	50 0e       	stdsp	sp[0x0],lr
8000240a:	e0 3e fe 40 	sub	lr,130624
8000240e:	7c 0e       	ld.w	lr,lr[0x0]
		return false;

	// Get job about endpoint
	ptr_job = &udd_ep_job[ep - 1];

	if ((!Is_udd_endpoint_enabled(ep))
80002410:	e6 1e 00 08 	andh	lr,0x8,COH
80002414:	c7 81       	brne	80002504 <udd_ep_run+0x128>
	ep &= USB_EP_ADDR_MASK;
	if (USB_DEVICE_MAX_EP < ep)
		return false;

	// Get job about endpoint
	ptr_job = &udd_ep_job[ep - 1];
80002416:	ee c2 00 01 	sub	r2,r7,1
8000241a:	4b d5       	lddpc	r5,8000250c <udd_ep_run+0x130>
8000241c:	e4 0e 15 04 	lsl	lr,r2,0x4
80002420:	ea 0e 00 0e 	add	lr,r5,lr

	if ((!Is_udd_endpoint_enabled(ep))
			|| Is_udd_endpoint_stall_requested(ep)
			|| ptr_job->stall_requested)
80002424:	7c 04       	ld.w	r4,lr[0x0]
80002426:	e6 14 10 00 	andh	r4,0x1000,COH
8000242a:	c6 d1       	brne	80002504 <udd_ep_run+0x128>

static inline irqflags_t cpu_irq_save(void)
{
	irqflags_t flags;

	flags = sysreg_read(AVR32_SR);
8000242c:	e1 b1 00 00 	mfsr	r1,0x0
	cpu_irq_disable();
80002430:	d3 03       	ssrf	0x10
		return false;	// Endpoint is halted

	flags = cpu_irq_save();
	if (ptr_job->busy == true) {
80002432:	7c 00       	ld.w	r0,lr[0x0]
80002434:	00 95       	mov	r5,r0
80002436:	e6 15 80 00 	andh	r5,0x8000,COH
8000243a:	c0 50       	breq	80002444 <udd_ep_run+0x68>
   // Don't work with sysreg_write(AVR32_SR, flags)
   if( cpu_irq_is_enabled_flags(flags) ) {
      cpu_irq_enable();
   }
#else
	sysreg_write(AVR32_SR, flags);
8000243c:	e3 b1 00 00 	mtsr	0x0,r1
#endif
	barrier();
80002440:	08 9c       	mov	r12,r4
		cpu_irq_restore(flags);
		return false;	// Job already on going
80002442:	c6 28       	rjmp	80002506 <udd_ep_run+0x12a>
	}
	ptr_job->busy = true;
80002444:	e1 d6 d3 e1 	bfins	r0,r6,0x1f,0x1
	bool b_dir_in;
	uint32_t udd_dma_ctrl = 0;
	udd_ep_job_t *ptr_job;
	irqflags_t flags;

	b_dir_in = (USB_EP_DIR_IN == (ep & USB_EP_DIR_IN));
80002448:	f9 dc c0 e8 	bfextu	r12,r12,0x7,0x8
	flags = cpu_irq_save();
	if (ptr_job->busy == true) {
		cpu_irq_restore(flags);
		return false;	// Job already on going
	}
	ptr_job->busy = true;
8000244c:	9d 00       	st.w	lr[0x0],r0
   // Don't work with sysreg_write(AVR32_SR, flags)
   if( cpu_irq_is_enabled_flags(flags) ) {
      cpu_irq_enable();
   }
#else
	sysreg_write(AVR32_SR, flags);
8000244e:	e3 b1 00 00 	mtsr	0x0,r1
	cpu_irq_restore(flags);
	ptr_job->buf = buf;
	ptr_job->call_trans = callback;
80002452:	9d 38       	st.w	lr[0xc],r8
		cpu_irq_restore(flags);
		return false;	// Job already on going
	}
	ptr_job->busy = true;
	cpu_irq_restore(flags);
	ptr_job->buf = buf;
80002454:	9d 1a       	st.w	lr[0x4],r10
	ptr_job->call_trans = callback;
	ptr_job->b_raise_dma = false;
80002456:	7c 08       	ld.w	r8,lr[0x0]
80002458:	f1 d5 d3 a1 	bfins	r8,r5,0x1d,0x1
8000245c:	9d 08       	st.w	lr[0x0],r8

	// The USBB supports a maximum transfer size of 64KB
	if (0x10000 <= buf_size) {
8000245e:	e0 49 ff ff 	cp.w	r9,65535
80002462:	e0 88 00 07 	brls	80002470 <udd_ep_run+0x94>
		// Transfer size = 64KB
		ptr_job->buf_size = 0x10000;
80002466:	e0 78 00 00 	mov	r8,65536
8000246a:	0a 99       	mov	r9,r5
8000246c:	9d 28       	st.w	lr[0x8],r8
8000246e:	c2 b8       	rjmp	800024c4 <udd_ep_run+0xe8>
		buf_size = 0;
	} else {
		ptr_job->buf_size = buf_size;
80002470:	9d 29       	st.w	lr[0x8],r9
		if (b_dir_in) {
80002472:	58 0c       	cp.w	r12,0
80002474:	c2 80       	breq	800024c4 <udd_ep_run+0xe8>
			if (buf_size==0) {
80002476:	58 09       	cp.w	r9,0
80002478:	c1 21       	brne	8000249c <udd_ep_run+0xc0>
				// The USB DMA can't send a empty buffer
				// thus we raise the DMA interrupt end of transfert 
				// to execute ZLP process
				ptr_job->b_raise_dma = true;
				ptr_job->b_send_zlp = true;
8000247a:	bd b8       	sbr	r8,0x1d
8000247c:	f1 d6 d3 c1 	bfins	r8,r6,0x1e,0x1
80002480:	9d 08       	st.w	lr[0x0],r8

static inline irqflags_t cpu_irq_save(void)
{
	irqflags_t flags;

	flags = sysreg_read(AVR32_SR);
80002482:	e1 b8 00 00 	mfsr	r8,0x0
	cpu_irq_disable();
80002486:	d3 03       	ssrf	0x10
				flags = cpu_irq_save();
				udd_enable_endpoint_dma_interrupt(ep);
80002488:	fc 19 02 00 	movh	r9,0x200
8000248c:	f2 02 09 42 	lsl	r2,r9,r2
80002490:	87 62       	st.w	r3[0x18],r2
				udd_raise_endpoint_dma_interrupt(ep);
80002492:	87 32       	st.w	r3[0xc],r2
   // Don't work with sysreg_write(AVR32_SR, flags)
   if( cpu_irq_is_enabled_flags(flags) ) {
      cpu_irq_enable();
   }
#else
	sysreg_write(AVR32_SR, flags);
80002494:	e3 b8 00 00 	mtsr	0x0,r8
#endif
	barrier();
80002498:	0c 9c       	mov	r12,r6
				cpu_irq_restore(flags);
				return true;
8000249a:	c3 68       	rjmp	80002506 <udd_ep_run+0x12a>
			}
			if (0 != buf_size % udd_get_endpoint_size(ep)) {
8000249c:	40 04       	lddsp	r4,sp[0x0]
8000249e:	e0 34 ff 00 	sub	r4,130816
800024a2:	68 04       	ld.w	r4,r4[0x0]
800024a4:	30 83       	mov	r3,8
800024a6:	e9 d4 c0 83 	bfextu	r4,r4,0x4,0x3
800024aa:	e6 04 09 44 	lsl	r4,r3,r4
800024ae:	20 14       	sub	r4,1
800024b0:	12 64       	and	r4,r9
800024b2:	c0 60       	breq	800024be <udd_ep_run+0xe2>
				// Force short packet option to send a shortpacket on IN,
				// else the DMA transfer is accepted and interrupt DMA valid but nothing is sent.
				b_shortpacket = true;
				ptr_job->b_send_zlp = false;
800024b4:	f1 d5 d3 c1 	bfins	r8,r5,0x1e,0x1
800024b8:	0c 9b       	mov	r11,r6
800024ba:	9d 08       	st.w	lr[0x0],r8
800024bc:	c0 48       	rjmp	800024c4 <udd_ep_run+0xe8>
			}else{
				ptr_job->b_send_zlp = b_shortpacket;
800024be:	f1 db d3 c1 	bfins	r8,r11,0x1e,0x1
800024c2:	9d 08       	st.w	lr[0x0],r8
			}
		}
	}

	// Start USB DMA to fill or read fifo of the selected endpoint
	udd_endpoint_dma_set_addr(ep, (U32) buf);
800024c4:	ee 08 15 04 	lsl	r8,r7,0x4
800024c8:	e0 38 fd 00 	sub	r8,130304
800024cc:	91 1a       	st.w	r8[0x4],r10
	if (b_shortpacket) {
800024ce:	58 0b       	cp.w	r11,0
800024d0:	c0 60       	breq	800024dc <udd_ep_run+0x100>
		if (b_dir_in) {
800024d2:	58 0c       	cp.w	r12,0
800024d4:	f9 bb 01 08 	movne	r11,8
800024d8:	f9 bb 00 14 	moveq	r11,20
		} else {
			udd_dma_ctrl = AVR32_USBB_UDDMA1_CONTROL_EOT_IRQ_EN_MASK
					| AVR32_USBB_UDDMA1_CONTROL_BUFF_CLOSE_IN_EN_MASK;
		}
	}
	udd_dma_ctrl |= (buf_size <<
800024dc:	b1 69       	lsl	r9,0x10
800024de:	e8 19 00 21 	orl	r9,0x21
			AVR32_USBB_UDDMA1_CONTROL_CH_BYTE_LENGTH_OFFSET)
			& AVR32_USBB_UDDMA1_CONTROL_CH_BYTE_LENGTH_MASK;
	udd_dma_ctrl |= AVR32_USBB_UDDMA1_CONTROL_EOBUFF_IRQ_EN_MASK |
800024e2:	16 49       	or	r9,r11
			AVR32_USBB_UDDMA1_CONTROL_CH_EN_MASK;
	udd_endpoint_dma_set_control(ep, udd_dma_ctrl);
800024e4:	91 29       	st.w	r8[0x8],r9

static inline irqflags_t cpu_irq_save(void)
{
	irqflags_t flags;

	flags = sysreg_read(AVR32_SR);
800024e6:	e1 b8 00 00 	mfsr	r8,0x0
	cpu_irq_disable();
800024ea:	d3 03       	ssrf	0x10
	flags = cpu_irq_save();
	udd_enable_endpoint_dma_interrupt(ep);
800024ec:	fc 19 02 00 	movh	r9,0x200
800024f0:	20 17       	sub	r7,1
800024f2:	f2 07 09 47 	lsl	r7,r9,r7
800024f6:	fe 69 00 00 	mov	r9,-131072
800024fa:	93 67       	st.w	r9[0x18],r7
   // Don't work with sysreg_write(AVR32_SR, flags)
   if( cpu_irq_is_enabled_flags(flags) ) {
      cpu_irq_enable();
   }
#else
	sysreg_write(AVR32_SR, flags);
800024fc:	e3 b8 00 00 	mtsr	0x0,r8
#endif
	barrier();
80002500:	30 1c       	mov	r12,1
	cpu_irq_restore(flags);

	return true;
80002502:	c0 28       	rjmp	80002506 <udd_ep_run+0x12a>
80002504:	30 0c       	mov	r12,0
}
80002506:	2f fd       	sub	sp,-4
80002508:	d8 32       	popm	r0-r7,pc
8000250a:	d7 03       	nop
8000250c:	00 00       	add	r0,r0
8000250e:	06 e8       	st.h	--r3,r8

80002510 <udd_sleep_mode>:
/*! \brief Authorize or not the CPU powerdown mode
 * 
 * \param b_enable   true to authorize powerdown mode
 */
static void udd_sleep_mode(bool b_idle)
{
80002510:	49 08       	lddpc	r8,80002550 <udd_sleep_mode+0x40>
	if (!b_idle && udd_b_idle) {
80002512:	58 0c       	cp.w	r12,0
80002514:	c0 c1       	brne	8000252c <udd_sleep_mode+0x1c>
80002516:	11 89       	ld.ub	r9,r8[0x0]
80002518:	f8 09 18 00 	cp.b	r9,r12
8000251c:	c1 60       	breq	80002548 <udd_sleep_mode+0x38>

static inline irqflags_t cpu_irq_save(void)
{
	irqflags_t flags;

	flags = sysreg_read(AVR32_SR);
8000251e:	e1 b9 00 00 	mfsr	r9,0x0
	cpu_irq_disable();
80002522:	d3 03       	ssrf	0x10
	Assert(sleepmgr_locks[mode] < 0xff);

	// Enter a critical section
	flags = cpu_irq_save();

	++sleepmgr_locks[mode];
80002524:	48 c8       	lddpc	r8,80002554 <udd_sleep_mode+0x44>
80002526:	11 9a       	ld.ub	r10,r8[0x1]
80002528:	2f fa       	sub	r10,-1
8000252a:	c0 c8       	rjmp	80002542 <udd_sleep_mode+0x32>
		sleepmgr_lock_mode(USBB_SLEEP_MODE_USB_IDLE);
	}
	if (b_idle && !udd_b_idle) {
8000252c:	11 89       	ld.ub	r9,r8[0x0]
8000252e:	30 08       	mov	r8,0
80002530:	f0 09 18 00 	cp.b	r9,r8
80002534:	c0 a1       	brne	80002548 <udd_sleep_mode+0x38>

static inline irqflags_t cpu_irq_save(void)
{
	irqflags_t flags;

	flags = sysreg_read(AVR32_SR);
80002536:	e1 b9 00 00 	mfsr	r9,0x0
	cpu_irq_disable();
8000253a:	d3 03       	ssrf	0x10
	Assert(sleepmgr_locks[mode]);

	// Enter a critical section
	flags = cpu_irq_save();

	--sleepmgr_locks[mode];
8000253c:	48 68       	lddpc	r8,80002554 <udd_sleep_mode+0x44>
8000253e:	11 9a       	ld.ub	r10,r8[0x1]
80002540:	20 1a       	sub	r10,1
80002542:	b0 9a       	st.b	r8[0x1],r10
   // Don't work with sysreg_write(AVR32_SR, flags)
   if( cpu_irq_is_enabled_flags(flags) ) {
      cpu_irq_enable();
   }
#else
	sysreg_write(AVR32_SR, flags);
80002544:	e3 b9 00 00 	mtsr	0x0,r9
		sleepmgr_unlock_mode(USBB_SLEEP_MODE_USB_IDLE);
	}
	udd_b_idle = b_idle;
80002548:	48 28       	lddpc	r8,80002550 <udd_sleep_mode+0x40>
8000254a:	b0 8c       	st.b	r8[0x0],r12
}
8000254c:	5e fc       	retal	r12
8000254e:	d7 03       	nop
80002550:	00 00       	add	r0,r0
80002552:	07 18       	ld.sh	r8,r3++
80002554:	00 00       	add	r0,r0
80002556:	0c b0       	st.h	r6++,r0

80002558 <udd_detach>:
	cpu_irq_restore(flags);
}


void udd_detach(void)
{
80002558:	d4 01       	pushm	lr
	otg_unfreeze_clock();
8000255a:	fe 68 00 00 	mov	r8,-131072
8000255e:	f0 f9 08 00 	ld.w	r9,r8[2048]
80002562:	af c9       	cbr	r9,0xe
80002564:	f1 49 08 00 	st.w	r8[2048],r9
	// Detach device from the bus
	udd_detach_device();
80002568:	70 09       	ld.w	r9,r8[0x0]
8000256a:	a9 a9       	sbr	r9,0x8
	udd_sleep_mode(false);
8000256c:	30 0c       	mov	r12,0

void udd_detach(void)
{
	otg_unfreeze_clock();
	// Detach device from the bus
	udd_detach_device();
8000256e:	91 09       	st.w	r8[0x0],r9
	udd_sleep_mode(false);
80002570:	cd 0f       	rcall	80002510 <udd_sleep_mode>
80002572:	d8 02       	popm	pc

80002574 <udd_ctrl_init>:
}
80002574:	e1 b8 00 00 	mfsr	r8,0x0
80002578:	d3 03       	ssrf	0x10
8000257a:	30 1a       	mov	r10,1
	// In case of abort of IN Data Phase:
	// No need to abort IN transfer (rise TXINI), 
	// because it is automatically done by hardware when a Setup packet is received.
	// But the interrupt must be disabled to don't generate interrupt TXINI 
	// after SETUP reception.
	udd_disable_in_send_interrupt(0);
8000257c:	fe 69 02 20 	mov	r9,-130528
80002580:	93 0a       	st.w	r9[0x0],r10
80002582:	e3 b8 00 00 	mtsr	0x0,r8
	cpu_irq_restore(flags);
	// In case of OUT ZLP event is no processed before Setup event occurs
	udd_ack_out_received(0);

	udd_g_ctrlreq.callback = NULL;
80002586:	48 79       	lddpc	r9,800025a0 <udd_ctrl_init+0x2c>
80002588:	30 08       	mov	r8,0
	udd_g_ctrlreq.over_under_run = NULL;
	udd_g_ctrlreq.payload_size = 0;
8000258a:	b2 68       	st.h	r9[0xc],r8
	udd_disable_in_send_interrupt(0);
	cpu_irq_restore(flags);
	// In case of OUT ZLP event is no processed before Setup event occurs
	udd_ack_out_received(0);

	udd_g_ctrlreq.callback = NULL;
8000258c:	93 48       	st.w	r9[0x10],r8
	udd_g_ctrlreq.over_under_run = NULL;
8000258e:	93 58       	st.w	r9[0x14],r8
	// But the interrupt must be disabled to don't generate interrupt TXINI 
	// after SETUP reception.
	udd_disable_in_send_interrupt(0);
	cpu_irq_restore(flags);
	// In case of OUT ZLP event is no processed before Setup event occurs
	udd_ack_out_received(0);
80002590:	fe 69 01 60 	mov	r9,-130720
80002594:	30 2a       	mov	r10,2
80002596:	93 0a       	st.w	r9[0x0],r10

	udd_g_ctrlreq.callback = NULL;
	udd_g_ctrlreq.over_under_run = NULL;
	udd_g_ctrlreq.payload_size = 0;
	udd_ep_control_state = UDD_EPCTRL_SETUP;
80002598:	48 39       	lddpc	r9,800025a4 <udd_ctrl_init+0x30>
8000259a:	93 08       	st.w	r9[0x0],r8
}
8000259c:	5e fc       	retal	r12
8000259e:	d7 03       	nop
800025a0:	00 00       	add	r0,r0
800025a2:	0c 98       	mov	r8,r6
800025a4:	00 00       	add	r0,r0
800025a6:	07 1c       	ld.sh	r12,r3++

800025a8 <udd_ctrl_in_sent>:
	}
}


static void udd_ctrl_in_sent(void)
{
800025a8:	d4 31       	pushm	r0-r7,lr

static inline irqflags_t cpu_irq_save(void)
{
	irqflags_t flags;

	flags = sysreg_read(AVR32_SR);
800025aa:	e1 b8 00 00 	mfsr	r8,0x0
	cpu_irq_disable();
800025ae:	d3 03       	ssrf	0x10
	uint8_t i;
	uint8_t *ptr_dest, *ptr_src;
	irqflags_t flags;

	flags = cpu_irq_save();
	udd_disable_in_send_interrupt(0);
800025b0:	30 1a       	mov	r10,1
800025b2:	fe 69 02 20 	mov	r9,-130528
800025b6:	93 0a       	st.w	r9[0x0],r10
   // Don't work with sysreg_write(AVR32_SR, flags)
   if( cpu_irq_is_enabled_flags(flags) ) {
      cpu_irq_enable();
   }
#else
	sysreg_write(AVR32_SR, flags);
800025b8:	e3 b8 00 00 	mtsr	0x0,r8
	cpu_irq_restore(flags);

	if (UDD_EPCTRL_HANDSHAKE_WAIT_IN_ZLP == udd_ep_control_state) {
800025bc:	4b a9       	lddpc	r9,800026a4 <udd_ctrl_in_sent+0xfc>
800025be:	4b b6       	lddpc	r6,800026a8 <udd_ctrl_in_sent+0x100>
800025c0:	72 08       	ld.w	r8,r9[0x0]
800025c2:	58 38       	cp.w	r8,3
800025c4:	c0 71       	brne	800025d2 <udd_ctrl_in_sent+0x2a>


static void udd_ctrl_endofrequest(void)
{
	// If a callback is registered then call it
	if (udd_g_ctrlreq.callback) {
800025c6:	6c 48       	ld.w	r8,r6[0x10]
800025c8:	58 08       	cp.w	r8,0
800025ca:	c0 20       	breq	800025ce <udd_ctrl_in_sent+0x26>
		udd_g_ctrlreq.callback();
800025cc:	5d 18       	icall	r8

	if (UDD_EPCTRL_HANDSHAKE_WAIT_IN_ZLP == udd_ep_control_state) {
		// ZLP on IN is sent, then valid end of setup request
		udd_ctrl_endofrequest();
		// Reinitializes control endpoint management
		udd_ctrl_init();
800025ce:	cd 3f       	rcall	80002574 <udd_ctrl_init>
800025d0:	d8 32       	popm	r0-r7,pc
		return;
800025d2:	8c 68       	ld.sh	r8,r6[0xc]
	}
	Assert(udd_ep_control_state == UDD_EPCTRL_DATA_IN);

	nb_remain = udd_g_ctrlreq.payload_size - udd_ctrl_payload_nb_trans;
800025d4:	4b 64       	lddpc	r4,800026ac <udd_ctrl_in_sent+0x104>
800025d6:	88 07       	ld.sh	r7,r4[0x0]
800025d8:	f0 07 01 07 	sub	r7,r8,r7
800025dc:	5c 87       	casts.h	r7
800025de:	c2 f1       	brne	8000263c <udd_ctrl_in_sent+0x94>
	if (0 == nb_remain) {
800025e0:	4b 43       	lddpc	r3,800026b0 <udd_ctrl_in_sent+0x108>
		// All content of current buffer payload are sent
		if (!udd_ctrl_payload_need_in_zlp) {
800025e2:	07 8b       	ld.ub	r11,r3[0x0]
800025e4:	ee 0b 18 00 	cp.b	r11,r7
800025e8:	c0 e1       	brne	80002604 <udd_ctrl_in_sent+0x5c>
800025ea:	30 48       	mov	r8,4

static void udd_ctrl_send_zlp_out(void)
{
	irqflags_t flags;

	udd_ep_control_state = UDD_EPCTRL_HANDSHAKE_WAIT_OUT_ZLP;
800025ec:	93 08       	st.w	r9[0x0],r8
800025ee:	e1 b9 00 00 	mfsr	r9,0x0

static inline irqflags_t cpu_irq_save(void)
{
	irqflags_t flags;

	flags = sysreg_read(AVR32_SR);
800025f2:	d3 03       	ssrf	0x10
	cpu_irq_disable();
800025f4:	31 08       	mov	r8,16
	// No action is necessary to accept OUT ZLP
	// because the buffer of control endpoint is already free

	// To detect a protocol error, enable nak interrupt on data IN phase
	flags = cpu_irq_save();
	udd_ack_nak_in(0);
800025f6:	fe 6a 01 60 	mov	r10,-130720
800025fa:	95 08       	st.w	r10[0x0],r8
800025fc:	fe 6a 01 f0 	mov	r10,-130576
	udd_enable_nak_in_interrupt(0);
80002600:	95 08       	st.w	r10[0x0],r8
80002602:	c4 e8       	rjmp	8000269e <udd_ctrl_in_sent+0xf6>
80002604:	5c 78       	castu.h	r8
			// It is the end of data phase, because the last data packet is a short packet
			// then generate an OUT ZLP for handshake phase.
			udd_ctrl_send_zlp_out();
			return;
		}
		if ((udd_g_ctrlreq.req.wLength > (udd_ctrl_prev_payload_nb_trans
80002606:	4a c5       	lddpc	r5,800026b4 <udd_ctrl_in_sent+0x10c>
80002608:	8c b9       	ld.uh	r9,r6[0x6]
8000260a:	8a 8a       	ld.uh	r10,r5[0x0]
8000260c:	14 08       	add	r8,r10
8000260e:	10 39       	cp.w	r9,r8
80002610:	e0 89 00 07 	brgt	8000261e <udd_ctrl_in_sent+0x76>
80002614:	6c 5c       	ld.w	r12,r6[0x14]
								+
								udd_g_ctrlreq.
								payload_size))
				|| (!udd_g_ctrlreq.over_under_run)
80002616:	58 0c       	cp.w	r12,0
			// It is the end of data phase, because the last data packet is a short packet
			// then generate an OUT ZLP for handshake phase.
			udd_ctrl_send_zlp_out();
			return;
		}
		if ((udd_g_ctrlreq.req.wLength > (udd_ctrl_prev_payload_nb_trans
80002618:	c0 30       	breq	8000261e <udd_ctrl_in_sent+0x76>
8000261a:	5d 1c       	icall	r12
8000261c:	c0 51       	brne	80002626 <udd_ctrl_in_sent+0x7e>
8000261e:	30 09       	mov	r9,0
								udd_g_ctrlreq.
								payload_size))
				|| (!udd_g_ctrlreq.over_under_run)
				|| (!udd_g_ctrlreq.over_under_run())) {
			// Underrun or data packet complette than send zlp on IN (note don't change DataToggle)
			udd_ctrl_payload_need_in_zlp = false;
80002620:	4a 48       	lddpc	r8,800026b0 <udd_ctrl_in_sent+0x108>
80002622:	b0 89       	st.b	r8[0x0],r9
80002624:	c1 18       	rjmp	80002646 <udd_ctrl_in_sent+0x9e>
80002626:	88 09       	ld.sh	r9,r4[0x0]
			// nb_remain==0 allows to send a IN ZLP
		} else {
			// A new payload buffer is given
			// Update number of total data sending by previous playlaod buffer
			udd_ctrl_prev_payload_nb_trans +=
80002628:	8a 08       	ld.sh	r8,r5[0x0]
8000262a:	f2 08 00 08 	add	r8,r9,r8
8000262e:	a8 07       	st.h	r4[0x0],r7
					udd_ctrl_payload_nb_trans;
			// Update maangement of current playoad transfer
			udd_ctrl_payload_nb_trans = 0;
80002630:	aa 08       	st.h	r5[0x0],r8
			udd_ctrl_payload_need_in_zlp = false;
			// nb_remain==0 allows to send a IN ZLP
		} else {
			// A new payload buffer is given
			// Update number of total data sending by previous playlaod buffer
			udd_ctrl_prev_payload_nb_trans +=
80002632:	8c 67       	ld.sh	r7,r6[0xc]
					udd_ctrl_payload_nb_trans;
			// Update maangement of current playoad transfer
			udd_ctrl_payload_nb_trans = 0;
			nb_remain = udd_g_ctrlreq.payload_size;
80002634:	f1 d7 c0 06 	bfextu	r8,r7,0x0,0x6
			// Compute if an IN ZLP must be send after IN data
			udd_ctrl_payload_need_in_zlp =
80002638:	5f 08       	sreq	r8
8000263a:	a6 88       	st.b	r3[0x0],r8
8000263c:	34 08       	mov	r8,64
							USB_DEVICE_EP_CTRL_SIZE)
					== 0);
		}
	}
	// Continue transfer and send next data
	if (nb_remain > USB_DEVICE_EP_CTRL_SIZE) {
8000263e:	ee 08 19 00 	cp.h	r8,r7
80002642:	f9 b7 03 40 	movlo	r7,64
80002646:	49 98       	lddpc	r8,800026a8 <udd_ctrl_in_sent+0x100>
		nb_remain = USB_DEVICE_EP_CTRL_SIZE;
	}
	// Fill buffer of endpoint control
	ptr_dest = (uint8_t *) & udd_get_endpoint_fifo_access(0, 8);
	ptr_src = udd_g_ctrlreq.payload + udd_ctrl_payload_nb_trans;
80002648:	70 2b       	ld.w	r11,r8[0x8]
8000264a:	49 98       	lddpc	r8,800026ac <udd_ctrl_in_sent+0x104>
8000264c:	90 0a       	ld.sh	r10,r8[0x0]
8000264e:	e1 b9 00 00 	mfsr	r9,0x0

static inline irqflags_t cpu_irq_save(void)
{
	irqflags_t flags;

	flags = sysreg_read(AVR32_SR);
80002652:	d3 03       	ssrf	0x10
	cpu_irq_disable();
80002654:	fe 68 01 30 	mov	r8,-130768
	// a next setup reception in same endpoint 0 DPRAM.
	// Thereby, an OUT ZLP reception must check before IN data write 
	// and if no OUT ZLP is recevied the data must be written quickly (800us)
	// before an eventually ZLP OUT and SETUP reception
	flags = cpu_irq_save();
	if (Is_udd_out_received(0)) {
80002658:	70 08       	ld.w	r8,r8[0x0]
8000265a:	ed b8 00 01 	bld	r8,0x1
8000265e:	c0 70       	breq	8000266c <udd_ctrl_in_sent+0xc4>
80002660:	5c 7a       	castu.h	r10
	if (nb_remain > USB_DEVICE_EP_CTRL_SIZE) {
		nb_remain = USB_DEVICE_EP_CTRL_SIZE;
	}
	// Fill buffer of endpoint control
	ptr_dest = (uint8_t *) & udd_get_endpoint_fifo_access(0, 8);
	ptr_src = udd_g_ctrlreq.payload + udd_ctrl_payload_nb_trans;
80002662:	fc 18 e0 00 	movh	r8,0xe000
80002666:	f6 0a 00 0a 	add	r10,r11,r10
8000266a:	c0 98       	rjmp	8000267c <udd_ctrl_in_sent+0xd4>
8000266c:	e3 b9 00 00 	mtsr	0x0,r9
   // Don't work with sysreg_write(AVR32_SR, flags)
   if( cpu_irq_is_enabled_flags(flags) ) {
      cpu_irq_enable();
   }
#else
	sysreg_write(AVR32_SR, flags);
80002670:	30 49       	mov	r9,4
	// before an eventually ZLP OUT and SETUP reception
	flags = cpu_irq_save();
	if (Is_udd_out_received(0)) {
		// IN DATA phase aborted by OUT ZLP
		cpu_irq_restore(flags);
		udd_ep_control_state = UDD_EPCTRL_HANDSHAKE_WAIT_OUT_ZLP;
80002672:	48 d8       	lddpc	r8,800026a4 <udd_ctrl_in_sent+0xfc>
80002674:	91 09       	st.w	r8[0x0],r9
80002676:	d8 32       	popm	r0-r7,pc
		return;	// Exit of IN DATA phase
80002678:	15 3b       	ld.ub	r11,r10++
	}
	// Write quickly the IN data
	for (i = 0; i < nb_remain; i++) {
		*ptr_dest++ = *ptr_src++;
8000267a:	10 cb       	st.b	r8++,r11
8000267c:	f7 d8 c0 08 	bfextu	r11,r8,0x0,0x8
		cpu_irq_restore(flags);
		udd_ep_control_state = UDD_EPCTRL_HANDSHAKE_WAIT_OUT_ZLP;
		return;	// Exit of IN DATA phase
	}
	// Write quickly the IN data
	for (i = 0; i < nb_remain; i++) {
80002680:	ee 0b 19 00 	cp.h	r11,r7
80002684:	cf a3       	brcs	80002678 <udd_ctrl_in_sent+0xd0>
80002686:	30 1a       	mov	r10,1
		*ptr_dest++ = *ptr_src++;
	}
	udd_ctrl_payload_nb_trans += nb_remain;

	// Validate and send the data available in the control endpoint buffer
	udd_ack_in_send(0);
80002688:	fe 68 01 60 	mov	r8,-130720
8000268c:	91 0a       	st.w	r8[0x0],r10
8000268e:	fe 6b 01 f0 	mov	r11,-130576
	udd_enable_in_send_interrupt(0);
80002692:	48 78       	lddpc	r8,800026ac <udd_ctrl_in_sent+0x104>
	}
	// Write quickly the IN data
	for (i = 0; i < nb_remain; i++) {
		*ptr_dest++ = *ptr_src++;
	}
	udd_ctrl_payload_nb_trans += nb_remain;
80002694:	97 0a       	st.w	r11[0x0],r10

	// Validate and send the data available in the control endpoint buffer
	udd_ack_in_send(0);
	udd_enable_in_send_interrupt(0);
80002696:	90 0a       	ld.sh	r10,r8[0x0]
	}
	// Write quickly the IN data
	for (i = 0; i < nb_remain; i++) {
		*ptr_dest++ = *ptr_src++;
	}
	udd_ctrl_payload_nb_trans += nb_remain;
80002698:	f4 07 00 07 	add	r7,r10,r7
8000269c:	b0 07       	st.h	r8[0x0],r7
8000269e:	e3 b9 00 00 	mtsr	0x0,r9
800026a2:	d8 32       	popm	r0-r7,pc
#endif
	barrier();
800026a4:	00 00       	add	r0,r0
800026a6:	07 1c       	ld.sh	r12,r3++
800026a8:	00 00       	add	r0,r0
800026aa:	0c 98       	mov	r8,r6
800026ac:	00 00       	add	r0,r0
800026ae:	07 1a       	ld.sh	r10,r3++
800026b0:	00 00       	add	r0,r0
800026b2:	07 20       	ld.uh	r0,r3++
800026b4:	00 00       	add	r0,r0
800026b6:	06 e4       	st.h	--r3,r4

800026b8 <udd_ep_alloc>:
800026b8:	d4 21       	pushm	r4-r7,lr
800026ba:	30 39       	mov	r9,3
800026bc:	f1 dc c0 04 	bfextu	r8,r12,0x0,0x4
	uint8_t bank, i;

	b_dir_in = ep & USB_EP_DIR_IN;
	ep = ep & USB_EP_ADDR_MASK;

	if (ep > USB_DEVICE_MAX_EP)
800026c0:	f2 08 18 00 	cp.b	r8,r9
800026c4:	e0 8b 00 88 	brhi	800027d4 <udd_ep_alloc+0x11c>
		return false;
	if (Is_udd_endpoint_enabled(ep))
800026c8:	fe 69 00 00 	mov	r9,-131072
800026cc:	72 76       	ld.w	r6,r9[0x1c]
800026ce:	30 17       	mov	r7,1
800026d0:	ee 08 09 4e 	lsl	lr,r7,r8
800026d4:	fd e6 00 06 	and	r6,lr,r6
800026d8:	c7 e1       	brne	800027d4 <udd_ep_alloc+0x11c>
		return false;

	// Bank choise
	switch(bmAttributes&USB_EP_TYPE_MASK) {
800026da:	f3 db c0 02 	bfextu	r9,r11,0x0,0x2
800026de:	0e 39       	cp.w	r9,r7
800026e0:	c7 a5       	brlt	800027d4 <udd_ep_alloc+0x11c>
800026e2:	58 29       	cp.w	r9,2
800026e4:	e0 8a 00 05 	brle	800026ee <udd_ep_alloc+0x36>
800026e8:	58 39       	cp.w	r9,3
800026ea:	c7 51       	brne	800027d4 <udd_ep_alloc+0x11c>
800026ec:	c0 28       	rjmp	800026f0 <udd_ep_alloc+0x38>
800026ee:	0e 96       	mov	r6,r7
	Assert(MaxEndpointSize < 1024);
	Assert((MaxEndpointSize == 1023) || !(MaxEndpointSize & (MaxEndpointSize - 1)));
	Assert(MaxEndpointSize >= 8);
		   
	// Set configuration of new endpoint
	udd_configure_endpoint(ep, bmAttributes, (b_dir_in ? 1 : 0),
800026f0:	5c 7a       	castu.h	r10
800026f2:	f9 dc c0 e1 	bfextu	r12,r12,0x7,0x1
800026f6:	ab 7b       	lsl	r11,0xb
800026f8:	a3 66       	lsl	r6,0x2
800026fa:	e2 1b 18 00 	andl	r11,0x1800,COH
800026fe:	e2 16 00 0c 	andl	r6,0xc,COH
80002702:	f7 ec 10 8b 	or	r11,r11,r12<<0x8
80002706:	f0 09 15 02 	lsl	r9,r8,0x2
8000270a:	30 8c       	mov	r12,8
8000270c:	e0 39 ff 00 	sub	r9,130816
80002710:	f4 0c 0c 4c 	max	r12,r10,r12
80002714:	72 07       	ld.w	r7,r9[0x0]
80002716:	e0 6a 04 00 	mov	r10,1024
8000271a:	e0 17 e6 83 	andl	r7,0xe683
8000271e:	f8 0a 0d 4c 	min	r12,r12,r10
80002722:	a1 7c       	lsl	r12,0x1
80002724:	20 1c       	sub	r12,1
80002726:	f8 0c 12 00 	clz	r12,r12
8000272a:	f8 0c 11 1c 	rsub	r12,r12,28
8000272e:	f7 ec 10 4b 	or	r11,r11,r12<<0x4
80002732:	0c 4b       	or	r11,r6
80002734:	e2 1b 19 7c 	andl	r11,0x197c,COH
80002738:	f7 e7 10 07 	or	r7,r11,r7
			MaxEndpointSize, bank);
	ep_allocated = 1 << ep;
8000273c:	5c 8e       	casts.h	lr
	Assert(MaxEndpointSize < 1024);
	Assert((MaxEndpointSize == 1023) || !(MaxEndpointSize & (MaxEndpointSize - 1)));
	Assert(MaxEndpointSize >= 8);
		   
	// Set configuration of new endpoint
	udd_configure_endpoint(ep, bmAttributes, (b_dir_in ? 1 : 0),
8000273e:	93 07       	st.w	r9[0x0],r7
			MaxEndpointSize, bank);
	ep_allocated = 1 << ep;
80002740:	fe 6a 01 0c 	mov	r10,-130804
80002744:	30 39       	mov	r9,3

	// Unalloc endpoints superior
	for (i = USB_DEVICE_MAX_EP; i > ep; i--) {
		if (Is_udd_endpoint_enabled(i)) {
80002746:	fe 6b 00 00 	mov	r11,-131072
8000274a:	30 17       	mov	r7,1
	udd_configure_endpoint(ep, bmAttributes, (b_dir_in ? 1 : 0),
			MaxEndpointSize, bank);
	ep_allocated = 1 << ep;

	// Unalloc endpoints superior
	for (i = USB_DEVICE_MAX_EP; i > ep; i--) {
8000274c:	c1 58       	rjmp	80002776 <udd_ep_alloc+0xbe>
		if (Is_udd_endpoint_enabled(i)) {
8000274e:	76 76       	ld.w	r6,r11[0x1c]
80002750:	ee 09 09 4c 	lsl	r12,r7,r9
			ep_allocated |= 1 << i;
			udd_disable_endpoint(i);
80002754:	f8 05 11 ff 	rsub	r5,r12,-1
			MaxEndpointSize, bank);
	ep_allocated = 1 << ep;

	// Unalloc endpoints superior
	for (i = USB_DEVICE_MAX_EP; i > ep; i--) {
		if (Is_udd_endpoint_enabled(i)) {
80002758:	f9 e6 00 06 	and	r6,r12,r6
8000275c:	c0 b0       	breq	80002772 <udd_ep_alloc+0xba>
			ep_allocated |= 1 << i;
			udd_disable_endpoint(i);
8000275e:	76 76       	ld.w	r6,r11[0x1c]
80002760:	eb e6 00 06 	and	r6,r5,r6
80002764:	97 76       	st.w	r11[0x1c],r6
	ep_allocated = 1 << ep;

	// Unalloc endpoints superior
	for (i = USB_DEVICE_MAX_EP; i > ep; i--) {
		if (Is_udd_endpoint_enabled(i)) {
			ep_allocated |= 1 << i;
80002766:	f9 ee 10 0e 	or	lr,r12,lr
			udd_disable_endpoint(i);
			udd_unallocate_memory(i);
8000276a:	74 0c       	ld.w	r12,r10[0x0]
	ep_allocated = 1 << ep;

	// Unalloc endpoints superior
	for (i = USB_DEVICE_MAX_EP; i > ep; i--) {
		if (Is_udd_endpoint_enabled(i)) {
			ep_allocated |= 1 << i;
8000276c:	5c 8e       	casts.h	lr
			udd_disable_endpoint(i);
			udd_unallocate_memory(i);
8000276e:	a1 dc       	cbr	r12,0x1
80002770:	95 0c       	st.w	r10[0x0],r12
80002772:	20 19       	sub	r9,1
80002774:	20 4a       	sub	r10,4
	udd_configure_endpoint(ep, bmAttributes, (b_dir_in ? 1 : 0),
			MaxEndpointSize, bank);
	ep_allocated = 1 << ep;

	// Unalloc endpoints superior
	for (i = USB_DEVICE_MAX_EP; i > ep; i--) {
80002776:	f0 09 18 00 	cp.b	r9,r8
8000277a:	fe 9b ff ea 	brhi	8000274e <udd_ep_alloc+0x96>
		}
	}

	// Realloc/Enable endpoints
	for (i = ep; i <= USB_DEVICE_MAX_EP; i++) {
		if (ep_allocated & (1 << i)) {
8000277e:	5c 7e       	castu.h	lr
			udd_allocate_memory(i);
			udd_enable_endpoint(i);
80002780:	fe 6a 00 00 	mov	r10,-131072
80002784:	30 17       	mov	r7,1
			udd_unallocate_memory(i);
		}
	}

	// Realloc/Enable endpoints
	for (i = ep; i <= USB_DEVICE_MAX_EP; i++) {
80002786:	30 3c       	mov	r12,3
		if (ep_allocated & (1 << i)) {
			udd_allocate_memory(i);
80002788:	fe 66 01 00 	mov	r6,-130816
8000278c:	f0 0b 15 02 	lsl	r11,r8,0x2
			udd_enable_endpoint(i);
80002790:	ee 08 09 45 	lsl	r5,r7,r8
	}

	// Realloc/Enable endpoints
	for (i = ep; i <= USB_DEVICE_MAX_EP; i++) {
		if (ep_allocated & (1 << i)) {
			udd_allocate_memory(i);
80002794:	f6 06 00 09 	add	r9,r11,r6
			udd_unallocate_memory(i);
		}
	}

	// Realloc/Enable endpoints
	for (i = ep; i <= USB_DEVICE_MAX_EP; i++) {
80002798:	f0 c6 ff ff 	sub	r6,r8,-1
		if (ep_allocated & (1 << i)) {
			udd_allocate_memory(i);
			udd_enable_endpoint(i);
			if (!Is_udd_endpoint_configured(i))
8000279c:	e0 3b fe d0 	sub	r11,130768
		}
	}

	// Realloc/Enable endpoints
	for (i = ep; i <= USB_DEVICE_MAX_EP; i++) {
		if (ep_allocated & (1 << i)) {
800027a0:	fc 08 08 48 	asr	r8,lr,r8
800027a4:	ed b8 00 00 	bld	r8,0x0
800027a8:	c0 f1       	brne	800027c6 <udd_ep_alloc+0x10e>
			udd_allocate_memory(i);
800027aa:	72 08       	ld.w	r8,r9[0x0]
800027ac:	a1 b8       	sbr	r8,0x1
800027ae:	93 08       	st.w	r9[0x0],r8
			udd_enable_endpoint(i);
800027b0:	74 78       	ld.w	r8,r10[0x1c]
800027b2:	eb e8 10 08 	or	r8,r5,r8
800027b6:	95 78       	st.w	r10[0x1c],r8
			if (!Is_udd_endpoint_configured(i))
800027b8:	76 08       	ld.w	r8,r11[0x0]
800027ba:	ed b8 00 12 	bld	r8,0x12
800027be:	c0 b1       	brne	800027d4 <udd_ep_alloc+0x11c>
				return false;
			udd_enable_endpoint_bank_autoswitch(i);	
800027c0:	72 08       	ld.w	r8,r9[0x0]
800027c2:	a9 b8       	sbr	r8,0x9
800027c4:	93 08       	st.w	r9[0x0],r8
			udd_unallocate_memory(i);
		}
	}

	// Realloc/Enable endpoints
	for (i = ep; i <= USB_DEVICE_MAX_EP; i++) {
800027c6:	f1 d6 c0 08 	bfextu	r8,r6,0x0,0x8
800027ca:	f8 08 18 00 	cp.b	r8,r12
800027ce:	fe 98 ff dd 	brls	80002788 <udd_ep_alloc+0xd0>
800027d2:	da 2a       	popm	r4-r7,pc,r12=1
800027d4:	d8 2a       	popm	r4-r7,pc,r12=0

800027d6 <udd_reset_ep_ctrl>:

static void udd_reset_ep_ctrl(void)
{
	irqflags_t flags;
	// Reset USB address to 0
	udd_configure_address(0);
800027d6:	fe 68 00 00 	mov	r8,-131072
800027da:	70 09       	ld.w	r9,r8[0x0]
800027dc:	e0 19 ff 80 	andl	r9,0xff80
800027e0:	91 09       	st.w	r8[0x0],r9
	udd_enable_address();
	// Alloc and configure control endpoint
	udd_configure_endpoint(0,
800027e2:	30 8c       	mov	r12,8
static void udd_reset_ep_ctrl(void)
{
	irqflags_t flags;
	// Reset USB address to 0
	udd_configure_address(0);
	udd_enable_address();
800027e4:	70 09       	ld.w	r9,r8[0x0]
800027e6:	a7 b9       	sbr	r9,0x7
800027e8:	91 09       	st.w	r8[0x0],r9
	// Alloc and configure control endpoint
	udd_configure_endpoint(0,
800027ea:	34 0b       	mov	r11,64
800027ec:	fe 69 01 00 	mov	r9,-130816
800027f0:	f6 0c 0c 4b 	max	r11,r11,r12
800027f4:	72 0a       	ld.w	r10,r9[0x0]
800027f6:	e0 6c 04 00 	mov	r12,1024
800027fa:	e0 1a e6 83 	andl	r10,0xe683
800027fe:	f6 0c 0d 4b 	min	r11,r11,r12
80002802:	a1 7b       	lsl	r11,0x1
80002804:	20 1b       	sub	r11,1
80002806:	f6 0b 12 00 	clz	r11,r11
8000280a:	f6 0b 11 1c 	rsub	r11,r11,28
8000280e:	a5 6b       	lsl	r11,0x4
80002810:	e2 1b 19 7c 	andl	r11,0x197c,COH
80002814:	f7 ea 10 0a 	or	r10,r11,r10
80002818:	93 0a       	st.w	r9[0x0],r10
			USB_EP_TYPE_CONTROL,
			0,
			USB_DEVICE_EP_CTRL_SIZE, AVR32_USBB_UECFG0_EPBK_SINGLE);

	udd_allocate_memory(0);
8000281a:	72 0a       	ld.w	r10,r9[0x0]
8000281c:	a1 ba       	sbr	r10,0x1
8000281e:	93 0a       	st.w	r9[0x0],r10
	udd_enable_endpoint(0);
80002820:	70 79       	ld.w	r9,r8[0x1c]
80002822:	a1 a9       	sbr	r9,0x0
80002824:	91 79       	st.w	r8[0x1c],r9

static inline irqflags_t cpu_irq_save(void)
{
	irqflags_t flags;

	flags = sysreg_read(AVR32_SR);
80002826:	e1 ba 00 00 	mfsr	r10,0x0
	cpu_irq_disable();
8000282a:	d3 03       	ssrf	0x10
	flags = cpu_irq_save();
	udd_enable_setup_received_interrupt(0);
8000282c:	fe 69 01 f0 	mov	r9,-130576
80002830:	30 4b       	mov	r11,4
80002832:	93 0b       	st.w	r9[0x0],r11
	udd_enable_out_received_interrupt(0);
80002834:	30 2b       	mov	r11,2
80002836:	93 0b       	st.w	r9[0x0],r11
	udd_enable_endpoint_interrupt(0);
80002838:	e0 69 10 00 	mov	r9,4096
8000283c:	91 69       	st.w	r8[0x18],r9
   // Don't work with sysreg_write(AVR32_SR, flags)
   if( cpu_irq_is_enabled_flags(flags) ) {
      cpu_irq_enable();
   }
#else
	sysreg_write(AVR32_SR, flags);
8000283e:	e3 ba 00 00 	mtsr	0x0,r10
	cpu_irq_restore(flags);
}
80002842:	5e fc       	retal	r12

80002844 <udd_attach>:
	cpu_irq_restore(flags);
}


void udd_attach(void)
{
80002844:	d4 21       	pushm	r4-r7,lr

static inline irqflags_t cpu_irq_save(void)
{
	irqflags_t flags;

	flags = sysreg_read(AVR32_SR);
80002846:	e1 b6 00 00 	mfsr	r6,0x0
	cpu_irq_disable();
8000284a:	d3 03       	ssrf	0x10
	flags = cpu_irq_save();

	// At startup the USB bus state is unknown, 
	// therefore the state is considered IDLE to not miss any USB event
	udd_sleep_mode(true);
	otg_unfreeze_clock();
8000284c:	fe 67 00 00 	mov	r7,-131072
	irqflags_t flags;
	flags = cpu_irq_save();

	// At startup the USB bus state is unknown, 
	// therefore the state is considered IDLE to not miss any USB event
	udd_sleep_mode(true);
80002850:	30 1c       	mov	r12,1
80002852:	c5 fe       	rcall	80002510 <udd_sleep_mode>
80002854:	ee f8 08 00 	ld.w	r8,r7[2048]
	otg_unfreeze_clock();
80002858:	af c8       	cbr	r8,0xe
8000285a:	ef 48 08 00 	st.w	r7[2048],r8
8000285e:	6e 08       	ld.w	r8,r7[0x0]
#else
	// Check USB clock because the source can be a PLL
	while( !Is_clock_usable() );
#endif
	// Authorize attach if VBus is present
	udd_attach_device();
80002860:	a9 c8       	cbr	r8,0x8
80002862:	8f 08       	st.w	r7[0x0],r8
80002864:	e0 a0 06 e6 	rcall	80003630 <udc_reset>

	// (RESET_AND_WAKEUP)
	// After the attach and the first USB suspend, the following USB Reset time can be inferior to CPU restart clock time.
	// Thus, the USB Reset state is not detected and endpoint control is not allocated
	// In this case, a Reset is do automatically after attach.
	udc_reset();	// Reset USB Device Stack Core
80002868:	cb 7f       	rcall	800027d6 <udd_reset_ep_ctrl>
	udd_reset_ep_ctrl();	// Reset endpoint control
8000286a:	c8 5e       	rcall	80002574 <udd_ctrl_init>
8000286c:	30 8b       	mov	r11,8
	udd_ctrl_init();	// Reset endpoint control management
8000286e:	8f 6b       	st.w	r7[0x18],r11
80002870:	30 19       	mov	r9,1

	// Enable USB line events
	udd_enable_reset_interrupt();
80002872:	8f 69       	st.w	r7[0x18],r9
80002874:	31 08       	mov	r8,16
	udd_enable_suspend_interrupt();
80002876:	8f 68       	st.w	r7[0x18],r8
80002878:	30 4a       	mov	r10,4
	udd_enable_wake_up_interrupt();
8000287a:	8f 6a       	st.w	r7[0x18],r10
8000287c:	8f 2b       	st.w	r7[0x8],r11
	udd_enable_sof_interrupt();
8000287e:	8f 2a       	st.w	r7[0x8],r10
80002880:	30 2a       	mov	r10,2
#ifdef USB_DEVICE_HS_SUPPORT
	udd_enable_msof_interrupt();
#endif
	// Reset following interupts flag
	udd_ack_reset();
80002882:	8f 2a       	st.w	r7[0x8],r10
	udd_ack_sof();
80002884:	8f 29       	st.w	r7[0x8],r9
	udd_ack_msof();
80002886:	8f 28       	st.w	r7[0x8],r8
80002888:	ee f8 08 00 	ld.w	r8,r7[2048]
	udd_ack_suspend();
#else
	// The first suspend interrupt is not detected else raise it
	udd_raise_suspend();
#endif
	udd_ack_wake_up();
8000288c:	af a8       	sbr	r8,0xe
	otg_freeze_clock();
8000288e:	ef 48 08 00 	st.w	r7[2048],r8
80002892:	e3 b6 00 00 	mtsr	0x0,r6
80002896:	d8 22       	popm	r4-r7,pc

80002898 <udd_enable>:
   // Don't work with sysreg_write(AVR32_SR, flags)
   if( cpu_irq_is_enabled_flags(flags) ) {
      cpu_irq_enable();
   }
#else
	sysreg_write(AVR32_SR, flags);
80002898:	d4 21       	pushm	r4-r7,lr
8000289a:	e0 a0 03 bd 	rcall	80003014 <sysclk_enable_usb>
	cpu_irq_restore(flags);
}
8000289e:	e1 b6 00 00 	mfsr	r6,0x0
800028a2:	d3 03       	ssrf	0x10
800028a4:	fe 67 00 00 	mov	r7,-131072
800028a8:	ee f8 08 00 	ld.w	r8,r7[2048]
800028ac:	af d8       	cbr	r8,0xf
800028ae:	ef 48 08 00 	st.w	r7[2048],r8

	flags = cpu_irq_save();

	//** Enable USB hardware
	otg_disable();
	(void)Is_otg_enabled();
800028b2:	ee f8 08 00 	ld.w	r8,r7[2048]
	// Check UID pin state before enter in USB device mode
	if (!Is_otg_id_device())
		return false;
#else
	// Here, only the Device mode is possible, then link USBB interrupt to UDD interrupt
	irq_register_handler(udd_interrupt, AVR32_USBB_IRQ, UDD_USB_INT_LEVEL);
800028b6:	30 0a       	mov	r10,0
800028b8:	e0 6b 02 20 	mov	r11,544
800028bc:	fe cc ff 34 	sub	r12,pc,-204
800028c0:	fe b0 fc 5e 	rcall	8000217c <INTC_register_interrupt>
	otg_force_device_mode();
800028c4:	ee f8 08 00 	ld.w	r8,r7[2048]
800028c8:	b9 b8       	sbr	r8,0x19
800028ca:	ef 48 08 00 	st.w	r7[2048],r8
800028ce:	ee f8 08 00 	ld.w	r8,r7[2048]
800028d2:	b9 c8       	cbr	r8,0x18
800028d4:	ef 48 08 00 	st.w	r7[2048],r8
#endif
	otg_disable_pad();
800028d8:	ee f8 08 00 	ld.w	r8,r7[2048]
800028dc:	ad c8       	cbr	r8,0xc
800028de:	ef 48 08 00 	st.w	r7[2048],r8
	otg_enable_pad();
800028e2:	ee f8 08 00 	ld.w	r8,r7[2048]
800028e6:	ad a8       	sbr	r8,0xc
800028e8:	ef 48 08 00 	st.w	r7[2048],r8
	otg_enable();
800028ec:	ee f8 08 00 	ld.w	r8,r7[2048]
800028f0:	af b8       	sbr	r8,0xf
800028f2:	ef 48 08 00 	st.w	r7[2048],r8
	otg_unfreeze_clock();
800028f6:	ee f8 08 00 	ld.w	r8,r7[2048]
800028fa:	af c8       	cbr	r8,0xe
800028fc:	ef 48 08 00 	st.w	r7[2048],r8
	(void)Is_otg_clock_frozen();
80002900:	ee f8 08 00 	ld.w	r8,r7[2048]

	// Set the USB speed requested by configuration file
#ifdef USB_DEVICE_LOW_SPEED
	udd_low_speed_enable();
#else
	udd_low_speed_disable();
80002904:	6e 08       	ld.w	r8,r7[0x0]
80002906:	ad c8       	cbr	r8,0xc
#  ifdef USB_DEVICE_HS_SUPPORT
	udd_high_speed_enable();
#  else
	udd_high_speed_disable();
80002908:	8f 08       	st.w	r7[0x0],r8
8000290a:	6e 08       	ld.w	r8,r7[0x0]
8000290c:	e8 18 0c 00 	orl	r8,0xc00
#  endif
#endif
	udd_enable_vbus_interrupt();
80002910:	8f 08       	st.w	r7[0x0],r8
80002912:	ee f8 08 00 	ld.w	r8,r7[2048]
80002916:	a1 b8       	sbr	r8,0x1
80002918:	ef 48 08 00 	st.w	r7[2048],r8
	otg_freeze_clock();
8000291c:	ee f8 08 00 	ld.w	r8,r7[2048]

static void udd_ep_job_table_reset(void)
{
	uint8_t i;
	for (i = 0; i < USB_DEVICE_MAX_EP; i++) {
		udd_ep_job[i].busy = false;
80002920:	af a8       	sbr	r8,0xe
#  else
	udd_high_speed_disable();
#  endif
#endif
	udd_enable_vbus_interrupt();
	otg_freeze_clock();
80002922:	30 09       	mov	r9,0
80002924:	ef 48 08 00 	st.w	r7[2048],r8

static void udd_ep_job_table_reset(void)
{
	uint8_t i;
	for (i = 0; i < USB_DEVICE_MAX_EP; i++) {
		udd_ep_job[i].busy = false;
80002928:	49 58       	lddpc	r8,8000297c <udd_enable+0xe4>
		udd_ep_job[i].stall_requested = false;
8000292a:	70 0a       	ld.w	r10,r8[0x0]
8000292c:	f5 da c0 1f 	bfextu	r10,r10,0x0,0x1f
80002930:	f5 d9 d3 81 	bfins	r10,r9,0x1c,0x1

static void udd_ep_job_table_reset(void)
{
	uint8_t i;
	for (i = 0; i < USB_DEVICE_MAX_EP; i++) {
		udd_ep_job[i].busy = false;
80002934:	91 0a       	st.w	r8[0x0],r10
		udd_ep_job[i].stall_requested = false;
80002936:	70 4a       	ld.w	r10,r8[0x10]
80002938:	f5 da c0 1f 	bfextu	r10,r10,0x0,0x1f
8000293c:	f5 d9 d3 81 	bfins	r10,r9,0x1c,0x1

static void udd_ep_job_table_reset(void)
{
	uint8_t i;
	for (i = 0; i < USB_DEVICE_MAX_EP; i++) {
		udd_ep_job[i].busy = false;
80002940:	91 4a       	st.w	r8[0x10],r10
		udd_ep_job[i].stall_requested = false;
80002942:	70 8a       	ld.w	r10,r8[0x20]
80002944:	f5 da c0 1f 	bfextu	r10,r10,0x0,0x1f
80002948:	f5 d9 d3 81 	bfins	r10,r9,0x1c,0x1
#  endif
#endif
	udd_enable_vbus_interrupt();
	otg_freeze_clock();
	// Always authorize asynchrone USB interrupts to exit of sleep mode
	AVR32_PM.AWEN.usb_waken = 1;
8000294c:	91 8a       	st.w	r8[0x20],r10
8000294e:	fe 78 0c 00 	mov	r8,-62464
80002952:	30 1b       	mov	r11,1
80002954:	f0 fa 01 44 	ld.w	r10,r8[324]
80002958:	f5 db d0 01 	bfins	r10,r11,0x0,0x1
8000295c:	f1 4a 01 44 	st.w	r8[324],r10

#ifndef UDD_NO_SLEEP_MGR
	// Initialize the sleep mode authorized for the USB suspend mode
	udd_b_idle = false;
80002960:	48 88       	lddpc	r8,80002980 <udd_enable+0xe8>

static inline irqflags_t cpu_irq_save(void)
{
	irqflags_t flags;

	flags = sysreg_read(AVR32_SR);
80002962:	b0 89       	st.b	r8[0x0],r9
80002964:	e1 b9 00 00 	mfsr	r9,0x0
	Assert(sleepmgr_locks[mode] < 0xff);

	// Enter a critical section
	flags = cpu_irq_save();

	++sleepmgr_locks[mode];
80002968:	d3 03       	ssrf	0x10
8000296a:	48 78       	lddpc	r8,80002984 <udd_enable+0xec>
8000296c:	11 ba       	ld.ub	r10,r8[0x3]
8000296e:	2f fa       	sub	r10,-1
   // Don't work with sysreg_write(AVR32_SR, flags)
   if( cpu_irq_is_enabled_flags(flags) ) {
      cpu_irq_enable();
   }
#else
	sysreg_write(AVR32_SR, flags);
80002970:	b0 ba       	st.b	r8[0x3],r10
80002972:	e3 b9 00 00 	mtsr	0x0,r9
80002976:	e3 b6 00 00 	mtsr	0x0,r6
	sleepmgr_lock_mode(USBB_SLEEP_MODE_USB_SUSPEND);
#endif

	cpu_irq_restore(flags);
}
8000297a:	d8 22       	popm	r4-r7,pc
8000297c:	00 00       	add	r0,r0
8000297e:	06 e8       	st.h	--r3,r8
80002980:	00 00       	add	r0,r0
80002982:	07 18       	ld.sh	r8,r3++
80002984:	00 00       	add	r0,r0
80002986:	0c b0       	st.h	r6++,r0

80002988 <udd_interrupt>:
80002988:	eb cd 40 fe 	pushm	r1-r7,lr
8000298c:	fe 68 00 00 	mov	r8,-131072
80002990:	70 19       	ld.w	r9,r8[0x4]
80002992:	ed b9 00 02 	bld	r9,0x2
#endif
#endif
ISR(udd_interrupt, AVR32_USBB_IRQ_GROUP, UDD_USB_INT_LEVEL)
#endif
{
	if (Is_udd_sof()) {
80002996:	c0 a1       	brne	800029aa <udd_interrupt+0x22>
		udd_ack_sof();
80002998:	30 49       	mov	r9,4
8000299a:	91 29       	st.w	r8[0x8],r9
		if (Is_udd_full_speed_mode()) {
8000299c:	f0 f8 08 04 	ld.w	r8,r8[2052]
800029a0:	f1 d8 c1 82 	bfextu	r8,r8,0xc,0x2
800029a4:	e0 81 02 98 	brne	80002ed4 <udd_interrupt+0x54c>
800029a8:	c0 78       	rjmp	800029b6 <udd_interrupt+0x2e>
#ifdef UDC_SOF_EVENT
		UDC_SOF_EVENT();
#endif
		goto udd_interrupt_end;
	}
	if (Is_udd_msof()) {
800029aa:	70 19       	ld.w	r9,r8[0x4]
800029ac:	ed b9 00 01 	bld	r9,0x1
800029b0:	c0 71       	brne	800029be <udd_interrupt+0x36>
		udd_ack_msof();
800029b2:	30 29       	mov	r9,2
800029b4:	91 29       	st.w	r8[0x8],r9
		udc_sof_notify();
800029b6:	e0 a0 05 8f 	rcall	800034d4 <udc_sof_notify>
		goto udd_interrupt_end;
800029ba:	e0 8f 02 8d 	bral	80002ed4 <udd_interrupt+0x54c>


static bool udd_ctrl_interrupt(void)
{

	if (!Is_udd_endpoint_interrupt(0))
800029be:	70 18       	ld.w	r8,r8[0x4]
800029c0:	ed b8 00 0c 	bld	r8,0xc
800029c4:	e0 81 01 79 	brne	80002cb6 <udd_interrupt+0x32e>
		return false;	// No interrupt events on control endpoint

	// By default disable overflow and underflow interrupt
	udd_disable_nak_in_interrupt(0);
800029c8:	fe 68 02 20 	mov	r8,-130528
800029cc:	31 09       	mov	r9,16
800029ce:	91 09       	st.w	r8[0x0],r9
	udd_disable_nak_out_interrupt(0);
800029d0:	30 89       	mov	r9,8
800029d2:	91 09       	st.w	r8[0x0],r9


	// Search event on control endpoint
	if (Is_udd_setup_received(0)) {
800029d4:	fe 69 01 30 	mov	r9,-130768
800029d8:	72 08       	ld.w	r8,r9[0x0]
800029da:	ed b8 00 02 	bld	r8,0x2
800029de:	c7 51       	brne	80002ac8 <udd_interrupt+0x140>
static void udd_ctrl_setup_received(void)
{
	irqflags_t flags;
	uint8_t i;

	if (UDD_EPCTRL_SETUP != udd_ep_control_state) {
800029e0:	4c 18       	lddpc	r8,80002ae4 <udd_interrupt+0x15c>
800029e2:	70 08       	ld.w	r8,r8[0x0]
800029e4:	58 08       	cp.w	r8,0
800029e6:	c0 80       	breq	800029f6 <udd_interrupt+0x6e>


static void udd_ctrl_endofrequest(void)
{
	// If a callback is registered then call it
	if (udd_g_ctrlreq.callback) {
800029e8:	4c 08       	lddpc	r8,80002ae8 <udd_interrupt+0x160>
800029ea:	70 48       	ld.w	r8,r8[0x10]
800029ec:	58 08       	cp.w	r8,0
800029ee:	c0 20       	breq	800029f2 <udd_interrupt+0x6a>
		udd_g_ctrlreq.callback();
800029f0:	5d 18       	icall	r8
	if (UDD_EPCTRL_SETUP != udd_ep_control_state) {
		// May be a hidden DATA or ZLP phase
		// or protocol abort
		udd_ctrl_endofrequest();
		// Reinitializes control endpoint management
		udd_ctrl_init();
800029f2:	fe b0 fd c1 	rcall	80002574 <udd_ctrl_init>
	}
	// Fill setup request structure
	if (8 != udd_byte_count(0)) {
800029f6:	fe 68 01 30 	mov	r8,-130768
800029fa:	70 08       	ld.w	r8,r8[0x0]
800029fc:	f1 d8 c2 8b 	bfextu	r8,r8,0x14,0xb
80002a00:	58 88       	cp.w	r8,8
80002a02:	c2 61       	brne	80002a4e <udd_interrupt+0xc6>
		udd_ctrl_stall_data();
		udd_ack_setup_received(0);
80002a04:	fc 18 e0 00 	movh	r8,0xe000
		return;	// Error data number doesn't correspond to SETUP packet
	}
	uint8_t *ptr = (uint8_t *) & udd_get_endpoint_fifo_access(0,8);
	for (i = 0; i < 8; i++) {
		((uint8_t*) &udd_g_ctrlreq.req)[i] = *ptr++;
80002a08:	4b 8a       	lddpc	r10,80002ae8 <udd_interrupt+0x160>
80002a0a:	fc 19 20 00 	movh	r9,0x2000
80002a0e:	f0 0a 00 0b 	add	r11,r8,r10
80002a12:	11 3c       	ld.ub	r12,r8++
80002a14:	f6 09 0b 0c 	st.b	r11[r9],r12
80002a18:	4b 47       	lddpc	r7,80002ae8 <udd_interrupt+0x160>
		udd_ctrl_stall_data();
		udd_ack_setup_received(0);
		return;	// Error data number doesn't correspond to SETUP packet
	}
	uint8_t *ptr = (uint8_t *) & udd_get_endpoint_fifo_access(0,8);
	for (i = 0; i < 8; i++) {
80002a1a:	30 8e       	mov	lr,8
80002a1c:	ea 1e e0 00 	orh	lr,0xe000
80002a20:	1c 38       	cp.w	r8,lr
80002a22:	cf 61       	brne	80002a0e <udd_interrupt+0x86>
		((uint8_t*) &udd_g_ctrlreq.req)[i] = *ptr++;
	}
	// Manage LSB/MSB to fit with CPU usage
	udd_g_ctrlreq.req.wValue = le16_to_cpu(udd_g_ctrlreq.req.wValue);
80002a24:	8e 9a       	ld.uh	r10,r7[0x2]
80002a26:	f4 0b 16 08 	lsr	r11,r10,0x8
80002a2a:	f7 ea 10 8a 	or	r10,r11,r10<<0x8
	udd_g_ctrlreq.req.wIndex = le16_to_cpu(udd_g_ctrlreq.req.wIndex);
80002a2e:	8e a9       	ld.uh	r9,r7[0x4]
	uint8_t *ptr = (uint8_t *) & udd_get_endpoint_fifo_access(0,8);
	for (i = 0; i < 8; i++) {
		((uint8_t*) &udd_g_ctrlreq.req)[i] = *ptr++;
	}
	// Manage LSB/MSB to fit with CPU usage
	udd_g_ctrlreq.req.wValue = le16_to_cpu(udd_g_ctrlreq.req.wValue);
80002a30:	ae 1a       	st.h	r7[0x2],r10
	udd_g_ctrlreq.req.wIndex = le16_to_cpu(udd_g_ctrlreq.req.wIndex);
80002a32:	f2 0a 16 08 	lsr	r10,r9,0x8
80002a36:	f5 e9 10 89 	or	r9,r10,r9<<0x8
	udd_g_ctrlreq.req.wLength = le16_to_cpu(udd_g_ctrlreq.req.wLength);
80002a3a:	8e b8       	ld.uh	r8,r7[0x6]
	for (i = 0; i < 8; i++) {
		((uint8_t*) &udd_g_ctrlreq.req)[i] = *ptr++;
	}
	// Manage LSB/MSB to fit with CPU usage
	udd_g_ctrlreq.req.wValue = le16_to_cpu(udd_g_ctrlreq.req.wValue);
	udd_g_ctrlreq.req.wIndex = le16_to_cpu(udd_g_ctrlreq.req.wIndex);
80002a3c:	ae 29       	st.h	r7[0x4],r9
	udd_g_ctrlreq.req.wLength = le16_to_cpu(udd_g_ctrlreq.req.wLength);
80002a3e:	f0 09 16 08 	lsr	r9,r8,0x8
80002a42:	f3 e8 10 88 	or	r8,r9,r8<<0x8
80002a46:	ae 38       	st.h	r7[0x6],r8

	// Decode setup request
	if (udc_process_setup() == false) {
80002a48:	e0 a0 06 18 	rcall	80003678 <udc_process_setup>
80002a4c:	c0 b1       	brne	80002a62 <udd_interrupt+0xda>

static void udd_ctrl_stall_data(void)
{
	// Stall all packets on IN & OUT control endpoint
	udd_ep_control_state = UDD_EPCTRL_STALL_REQ;
	udd_enable_stall_handshake(0);
80002a4e:	e8 69 00 00 	mov	r9,524288
80002a52:	fe 68 01 f0 	mov	r8,-130576
80002a56:	91 09       	st.w	r8[0x0],r9


static void udd_ctrl_stall_data(void)
{
	// Stall all packets on IN & OUT control endpoint
	udd_ep_control_state = UDD_EPCTRL_STALL_REQ;
80002a58:	30 59       	mov	r9,5
80002a5a:	4a 38       	lddpc	r8,80002ae4 <udd_interrupt+0x15c>
80002a5c:	91 09       	st.w	r8[0x0],r9

	// Decode setup request
	if (udc_process_setup() == false) {
		// Setup request unknow then stall it
		udd_ctrl_stall_data();
		udd_ack_setup_received(0);
80002a5e:	30 49       	mov	r9,4
80002a60:	cc c8       	rjmp	80002bf8 <udd_interrupt+0x270>
		return;
	}
	udd_ack_setup_received(0);
80002a62:	30 49       	mov	r9,4
80002a64:	fe 68 01 60 	mov	r8,-130720
80002a68:	91 09       	st.w	r8[0x0],r9

	if (Udd_setup_is_in()) {
80002a6a:	30 09       	mov	r9,0
80002a6c:	0f 8a       	ld.ub	r10,r7[0x0]
80002a6e:	f2 0a 18 00 	cp.b	r10,r9
80002a72:	c1 04       	brge	80002a92 <udd_interrupt+0x10a>
		// Compute if an IN ZLP must be send after IN data
		udd_ctrl_payload_need_in_zlp =
80002a74:	49 e9       	lddpc	r9,80002aec <udd_interrupt+0x164>
80002a76:	8e e8       	ld.uh	r8,r7[0xc]
80002a78:	f1 d8 c0 06 	bfextu	r8,r8,0x0,0x6
80002a7c:	5f 0a       	sreq	r10
80002a7e:	b2 8a       	st.b	r9[0x0],r10
				((udd_g_ctrlreq.payload_size %
						USB_DEVICE_EP_CTRL_SIZE) == 0);
		// IN data phase requested
		udd_ctrl_prev_payload_nb_trans = 0;
80002a80:	49 c9       	lddpc	r9,80002af0 <udd_interrupt+0x168>
80002a82:	30 08       	mov	r8,0
80002a84:	b2 08       	st.h	r9[0x0],r8
		udd_ctrl_payload_nb_trans = 0;
80002a86:	49 c9       	lddpc	r9,80002af4 <udd_interrupt+0x16c>
80002a88:	b2 08       	st.h	r9[0x0],r8
		udd_ep_control_state = UDD_EPCTRL_DATA_IN;
80002a8a:	30 29       	mov	r9,2
80002a8c:	49 68       	lddpc	r8,80002ae4 <udd_interrupt+0x15c>
80002a8e:	91 09       	st.w	r8[0x0],r9
80002a90:	c2 68       	rjmp	80002adc <udd_interrupt+0x154>
		udd_ctrl_in_sent();	// Send first data transfer
	} else {
		if (0 == udd_g_ctrlreq.req.wLength) {
80002a92:	8e 3b       	ld.sh	r11,r7[0x6]
80002a94:	30 09       	mov	r9,0
80002a96:	49 4a       	lddpc	r10,80002ae4 <udd_interrupt+0x15c>
80002a98:	f2 0b 19 00 	cp.h	r11,r9
80002a9c:	c0 41       	brne	80002aa4 <udd_interrupt+0x11c>

static void udd_ctrl_send_zlp_in(void)
{
	irqflags_t flags;

	udd_ep_control_state = UDD_EPCTRL_HANDSHAKE_WAIT_IN_ZLP;
80002a9e:	30 39       	mov	r9,3
80002aa0:	95 09       	st.w	r10[0x0],r9
80002aa2:	c8 f8       	rjmp	80002bc0 <udd_interrupt+0x238>
			// Send IN ZLP to ACK setup request
			udd_ctrl_send_zlp_in();
			return;
		}
		// OUT data phase requested
		udd_ctrl_prev_payload_nb_trans = 0;
80002aa4:	49 3b       	lddpc	r11,80002af0 <udd_interrupt+0x168>
80002aa6:	b6 09       	st.h	r11[0x0],r9
		udd_ctrl_payload_nb_trans = 0;
80002aa8:	49 3b       	lddpc	r11,80002af4 <udd_interrupt+0x16c>
80002aaa:	b6 09       	st.h	r11[0x0],r9
		udd_ep_control_state = UDD_EPCTRL_DATA_OUT;
80002aac:	30 19       	mov	r9,1
80002aae:	95 09       	st.w	r10[0x0],r9
		// To detect a protocol error, enable nak interrupt on data IN phase
		udd_ack_nak_in(0);
80002ab0:	31 09       	mov	r9,16
80002ab2:	91 09       	st.w	r8[0x0],r9

static inline irqflags_t cpu_irq_save(void)
{
	irqflags_t flags;

	flags = sysreg_read(AVR32_SR);
80002ab4:	e1 b8 00 00 	mfsr	r8,0x0
	cpu_irq_disable();
80002ab8:	d3 03       	ssrf	0x10
		flags = cpu_irq_save();
		udd_enable_nak_in_interrupt(0);
80002aba:	fe 6a 01 f0 	mov	r10,-130576
80002abe:	95 09       	st.w	r10[0x0],r9
   // Don't work with sysreg_write(AVR32_SR, flags)
   if( cpu_irq_is_enabled_flags(flags) ) {
      cpu_irq_enable();
   }
#else
	sysreg_write(AVR32_SR, flags);
80002ac0:	e3 b8 00 00 	mtsr	0x0,r8
#endif
	barrier();
80002ac4:	e0 8f 02 08 	bral	80002ed4 <udd_interrupt+0x54c>
	if (Is_udd_setup_received(0)) {
		// SETUP packet received
		udd_ctrl_setup_received();
		return true;
	}
	if (Is_udd_in_send(0) && Is_udd_in_send_interrupt_enabled(0)) {
80002ac8:	72 08       	ld.w	r8,r9[0x0]
80002aca:	ed b8 00 00 	bld	r8,0x0
80002ace:	c1 51       	brne	80002af8 <udd_interrupt+0x170>
80002ad0:	fe 68 01 c0 	mov	r8,-130624
80002ad4:	70 08       	ld.w	r8,r8[0x0]
80002ad6:	ed b8 00 00 	bld	r8,0x0
80002ada:	c0 f1       	brne	80002af8 <udd_interrupt+0x170>
		// IN packet sent
		udd_ctrl_in_sent();
80002adc:	fe b0 fd 66 	rcall	800025a8 <udd_ctrl_in_sent>
80002ae0:	e0 8f 01 fa 	bral	80002ed4 <udd_interrupt+0x54c>
80002ae4:	00 00       	add	r0,r0
80002ae6:	07 1c       	ld.sh	r12,r3++
80002ae8:	00 00       	add	r0,r0
80002aea:	0c 98       	mov	r8,r6
80002aec:	00 00       	add	r0,r0
80002aee:	07 20       	ld.uh	r0,r3++
80002af0:	00 00       	add	r0,r0
80002af2:	06 e4       	st.h	--r3,r4
80002af4:	00 00       	add	r0,r0
80002af6:	07 1a       	ld.sh	r10,r3++
80002af8:	fe 68 01 30 	mov	r8,-130768
80002afc:	70 09       	ld.w	r9,r8[0x0]
80002afe:	ed b9 00 01 	bld	r9,0x1
80002b02:	e0 81 00 9f 	brne	80002c40 <udd_interrupt+0x2b8>
80002b06:	4c ba       	lddpc	r10,80002c30 <udd_interrupt+0x2a8>
		return true;
	}
	if (Is_udd_out_received(0)) {
80002b08:	74 09       	ld.w	r9,r10[0x0]
80002b0a:	58 19       	cp.w	r9,1
80002b0c:	c1 70       	breq	80002b3a <udd_interrupt+0x1b2>
80002b0e:	58 29       	cp.w	r9,2
80002b10:	5f 08       	sreq	r8
80002b12:	58 49       	cp.w	r9,4
80002b14:	5f 09       	sreq	r9
{
	irqflags_t flags;
	uint8_t i;
	uint16_t nb_data;

	if (UDD_EPCTRL_DATA_OUT != udd_ep_control_state) {
80002b16:	f3 e8 10 08 	or	r8,r9,r8
80002b1a:	c0 80       	breq	80002b2a <udd_interrupt+0x1a2>
80002b1c:	4c 68       	lddpc	r8,80002c34 <udd_interrupt+0x2ac>
		if ((UDD_EPCTRL_DATA_IN == udd_ep_control_state)
80002b1e:	70 48       	ld.w	r8,r8[0x10]
80002b20:	58 08       	cp.w	r8,0
80002b22:	e0 80 01 82 	breq	80002e26 <udd_interrupt+0x49e>
80002b26:	5d 18       	icall	r8
80002b28:	c7 f9       	rjmp	80002e26 <udd_interrupt+0x49e>
80002b2a:	30 58       	mov	r8,5


static void udd_ctrl_endofrequest(void)
{
	// If a callback is registered then call it
	if (udd_g_ctrlreq.callback) {
80002b2c:	e8 69 00 00 	mov	r9,524288
80002b30:	95 08       	st.w	r10[0x0],r8
80002b32:	fe 68 01 f0 	mov	r8,-130576
		udd_g_ctrlreq.callback();
80002b36:	91 09       	st.w	r8[0x0],r9
80002b38:	c7 79       	rjmp	80002e26 <udd_interrupt+0x49e>


static void udd_ctrl_stall_data(void)
{
	// Stall all packets on IN & OUT control endpoint
	udd_ep_control_state = UDD_EPCTRL_STALL_REQ;
80002b3a:	4b f9       	lddpc	r9,80002c34 <udd_interrupt+0x2ac>
	udd_enable_stall_handshake(0);
80002b3c:	70 08       	ld.w	r8,r8[0x0]
80002b3e:	92 6a       	ld.sh	r10,r9[0xc]


static void udd_ctrl_stall_data(void)
{
	// Stall all packets on IN & OUT control endpoint
	udd_ep_control_state = UDD_EPCTRL_STALL_REQ;
80002b40:	f1 d8 c2 8b 	bfextu	r8,r8,0x14,0xb
	udd_enable_stall_handshake(0);
80002b44:	4b d9       	lddpc	r9,80002c38 <udd_interrupt+0x2b0>
80002b46:	f9 da c0 10 	bfextu	r12,r10,0x0,0x10
		udd_ctrl_init();
		return;
	}
	// Read data received during OUT phase
	nb_data = udd_byte_count(0);
	if (udd_g_ctrlreq.payload_size < (udd_ctrl_payload_nb_trans + nb_data)) {
80002b4a:	92 09       	ld.sh	r9,r9[0x0]
		// Reinitializes control endpoint management
		udd_ctrl_init();
		return;
	}
	// Read data received during OUT phase
	nb_data = udd_byte_count(0);
80002b4c:	f7 d9 c0 10 	bfextu	r11,r9,0x0,0x10
80002b50:	f0 0b 00 0b 	add	r11,r8,r11
	if (udd_g_ctrlreq.payload_size < (udd_ctrl_payload_nb_trans + nb_data)) {
80002b54:	16 3c       	cp.w	r12,r11
80002b56:	c0 44       	brge	80002b5e <udd_interrupt+0x1d6>
80002b58:	f4 09 01 08 	sub	r8,r10,r9
80002b5c:	5c 88       	casts.h	r8
80002b5e:	4b 6a       	lddpc	r10,80002c34 <udd_interrupt+0x2ac>
80002b60:	74 2b       	ld.w	r11,r10[0x8]
80002b62:	f5 d9 c0 10 	bfextu	r10,r9,0x0,0x10
80002b66:	14 0b       	add	r11,r10
		// Payload buffer too small
		nb_data = udd_g_ctrlreq.payload_size -
80002b68:	fc 1a e0 00 	movh	r10,0xe000
80002b6c:	c0 38       	rjmp	80002b72 <udd_interrupt+0x1ea>
				udd_ctrl_payload_nb_trans;
	}
	uint8_t *ptr_src = (uint8_t *) & udd_get_endpoint_fifo_access(0, 8);
	uint8_t *ptr_dest = udd_g_ctrlreq.payload + udd_ctrl_payload_nb_trans;
80002b6e:	15 3c       	ld.ub	r12,r10++
80002b70:	16 cc       	st.b	r11++,r12
80002b72:	f9 da c0 08 	bfextu	r12,r10,0x0,0x8
80002b76:	f0 0c 19 00 	cp.h	r12,r8
80002b7a:	cf a3       	brcs	80002b6e <udd_interrupt+0x1e6>
80002b7c:	f0 09 00 09 	add	r9,r8,r9
	for (i = 0; i < nb_data; i++) {
		*ptr_dest++ = *ptr_src++;
80002b80:	4a e7       	lddpc	r7,80002c38 <udd_interrupt+0x2b0>
		nb_data = udd_g_ctrlreq.payload_size -
				udd_ctrl_payload_nb_trans;
	}
	uint8_t *ptr_src = (uint8_t *) & udd_get_endpoint_fifo_access(0, 8);
	uint8_t *ptr_dest = udd_g_ctrlreq.payload + udd_ctrl_payload_nb_trans;
	for (i = 0; i < nb_data; i++) {
80002b82:	5c 89       	casts.h	r9
80002b84:	ae 09       	st.h	r7[0x0],r9
80002b86:	34 0a       	mov	r10,64
80002b88:	f4 08 19 00 	cp.h	r8,r10
		*ptr_dest++ = *ptr_src++;
	}
	udd_ctrl_payload_nb_trans += nb_data;
80002b8c:	c0 c1       	brne	80002ba4 <udd_interrupt+0x21c>
80002b8e:	4a a8       	lddpc	r8,80002c34 <udd_interrupt+0x2ac>
80002b90:	f9 d9 c0 10 	bfextu	r12,r9,0x0,0x10
80002b94:	4a a6       	lddpc	r6,80002c3c <udd_interrupt+0x2b4>

	if ((USB_DEVICE_EP_CTRL_SIZE != nb_data)
80002b96:	90 bb       	ld.uh	r11,r8[0x6]
80002b98:	8c 8a       	ld.uh	r10,r6[0x0]
80002b9a:	f8 0a 00 0a 	add	r10,r12,r10
80002b9e:	14 3b       	cp.w	r11,r10
80002ba0:	e0 89 00 1c 	brgt	80002bd8 <udd_interrupt+0x250>
80002ba4:	4a 48       	lddpc	r8,80002c34 <udd_interrupt+0x2ac>
80002ba6:	b0 69       	st.h	r8[0xc],r9
80002ba8:	70 5c       	ld.w	r12,r8[0x14]
80002baa:	58 0c       	cp.w	r12,0
80002bac:	c0 30       	breq	80002bb2 <udd_interrupt+0x22a>
80002bae:	5d 1c       	icall	r12
80002bb0:	c1 b0       	breq	80002be6 <udd_interrupt+0x25e>
80002bb2:	30 29       	mov	r9,2
							udd_ctrl_payload_nb_trans)))
	{
		// End of reception because it is a short packet
		// Before send ZLP, call intermediat calback 
		// in case of data receiv generate a stall
		udd_g_ctrlreq.payload_size = udd_ctrl_payload_nb_trans;
80002bb4:	fe 68 01 60 	mov	r8,-130720
		if (NULL != udd_g_ctrlreq.over_under_run) {
80002bb8:	30 3a       	mov	r10,3
80002bba:	91 09       	st.w	r8[0x0],r9
80002bbc:	49 d9       	lddpc	r9,80002c30 <udd_interrupt+0x2a8>
			if (!udd_g_ctrlreq.over_under_run()) {
80002bbe:	93 0a       	st.w	r9[0x0],r10
80002bc0:	e1 bb 00 00 	mfsr	r11,0x0
				udd_ack_out_received(0);
				return;
			}
		}
		// Send IN ZLP to ACK setup request
		udd_ack_out_received(0);
80002bc4:	d3 03       	ssrf	0x10
80002bc6:	30 1a       	mov	r10,1

static void udd_ctrl_send_zlp_in(void)
{
	irqflags_t flags;

	udd_ep_control_state = UDD_EPCTRL_HANDSHAKE_WAIT_IN_ZLP;
80002bc8:	91 0a       	st.w	r8[0x0],r10
				udd_ack_out_received(0);
				return;
			}
		}
		// Send IN ZLP to ACK setup request
		udd_ack_out_received(0);
80002bca:	fe 69 01 f0 	mov	r9,-130576

static void udd_ctrl_send_zlp_in(void)
{
	irqflags_t flags;

	udd_ep_control_state = UDD_EPCTRL_HANDSHAKE_WAIT_IN_ZLP;
80002bce:	93 0a       	st.w	r9[0x0],r10

static inline irqflags_t cpu_irq_save(void)
{
	irqflags_t flags;

	flags = sysreg_read(AVR32_SR);
80002bd0:	30 8a       	mov	r10,8
80002bd2:	91 0a       	st.w	r8[0x0],r10
	cpu_irq_disable();
80002bd4:	93 0a       	st.w	r9[0x0],r10
	// Validate and send empty IN packet on control endpoint
	flags = cpu_irq_save();
	// Send ZLP on IN endpoint
	udd_ack_in_send(0);
80002bd6:	c6 58       	rjmp	80002ca0 <udd_interrupt+0x318>
80002bd8:	90 6a       	ld.sh	r10,r8[0xc]
	udd_enable_in_send_interrupt(0);
80002bda:	f2 0a 19 00 	cp.h	r10,r9
80002bde:	c1 a1       	brne	80002c12 <udd_interrupt+0x28a>
	// To detect a protocol error, enable nak interrupt on data OUT phase
	udd_ack_nak_out(0);
80002be0:	70 5c       	ld.w	r12,r8[0x14]
80002be2:	58 0c       	cp.w	r12,0
	udd_enable_nak_out_interrupt(0);
80002be4:	c0 e1       	brne	80002c00 <udd_interrupt+0x278>
80002be6:	e8 69 00 00 	mov	r9,524288
		udd_ack_out_received(0);
		udd_ctrl_send_zlp_in();
		return;
	}

	if (udd_g_ctrlreq.payload_size == udd_ctrl_payload_nb_trans) {
80002bea:	fe 68 01 f0 	mov	r8,-130576
80002bee:	91 09       	st.w	r8[0x0],r9
		// Overrun then request a new payload buffer
		if (!udd_g_ctrlreq.over_under_run) {
80002bf0:	30 59       	mov	r9,5
80002bf2:	49 08       	lddpc	r8,80002c30 <udd_interrupt+0x2a8>
80002bf4:	91 09       	st.w	r8[0x0],r9

static void udd_ctrl_stall_data(void)
{
	// Stall all packets on IN & OUT control endpoint
	udd_ep_control_state = UDD_EPCTRL_STALL_REQ;
	udd_enable_stall_handshake(0);
80002bf6:	30 29       	mov	r9,2
80002bf8:	fe 68 01 60 	mov	r8,-130720
80002bfc:	91 09       	st.w	r8[0x0],r9
80002bfe:	c6 b9       	rjmp	80002ed4 <udd_interrupt+0x54c>


static void udd_ctrl_stall_data(void)
{
	// Stall all packets on IN & OUT control endpoint
	udd_ep_control_state = UDD_EPCTRL_STALL_REQ;
80002c00:	5d 1c       	icall	r12
80002c02:	cf 20       	breq	80002be6 <udd_interrupt+0x25e>
80002c04:	8e 09       	ld.sh	r9,r7[0x0]
		// Overrun then request a new payload buffer
		if (!udd_g_ctrlreq.over_under_run) {
			// No callback availabled to request a new payload buffer
			udd_ctrl_stall_data();
			// Ack reception of OUT to replace NAK by a STALL
			udd_ack_out_received(0);
80002c06:	8c 08       	ld.sh	r8,r6[0x0]
80002c08:	f2 08 00 08 	add	r8,r9,r8
80002c0c:	ac 08       	st.h	r6[0x0],r8
80002c0e:	30 08       	mov	r8,0
			return;
		}
		if (!udd_g_ctrlreq.over_under_run()) {
80002c10:	ae 08       	st.h	r7[0x0],r8
80002c12:	fe 69 01 60 	mov	r9,-130720
			udd_ack_out_received(0);
			return;
		}
		// New payload buffer available
		// Update number of total data received
		udd_ctrl_prev_payload_nb_trans += udd_ctrl_payload_nb_trans;
80002c16:	30 28       	mov	r8,2
80002c18:	93 08       	st.w	r9[0x0],r8
80002c1a:	31 08       	mov	r8,16
80002c1c:	93 08       	st.w	r9[0x0],r8
		// Reinit reception on payload buffer
		udd_ctrl_payload_nb_trans = 0;
80002c1e:	e1 b9 00 00 	mfsr	r9,0x0
	}
	// Free buffer of control endpoint to authorize next reception
	udd_ack_out_received(0);
80002c22:	d3 03       	ssrf	0x10
80002c24:	fe 6a 01 f0 	mov	r10,-130576
80002c28:	95 08       	st.w	r10[0x0],r8
	// To detect a protocol error, enable nak interrupt on data IN phase
	udd_ack_nak_in(0);
80002c2a:	e3 b9 00 00 	mtsr	0x0,r9

static inline irqflags_t cpu_irq_save(void)
{
	irqflags_t flags;

	flags = sysreg_read(AVR32_SR);
80002c2e:	c4 bb       	rjmp	80002ac4 <udd_interrupt+0x13c>
80002c30:	00 00       	add	r0,r0
	cpu_irq_disable();
80002c32:	07 1c       	ld.sh	r12,r3++
	flags = cpu_irq_save();
	udd_enable_nak_in_interrupt(0);
80002c34:	00 00       	add	r0,r0
80002c36:	0c 98       	mov	r8,r6
80002c38:	00 00       	add	r0,r0
   // Don't work with sysreg_write(AVR32_SR, flags)
   if( cpu_irq_is_enabled_flags(flags) ) {
      cpu_irq_enable();
   }
#else
	sysreg_write(AVR32_SR, flags);
80002c3a:	07 1a       	ld.sh	r10,r3++
80002c3c:	00 00       	add	r0,r0
80002c3e:	06 e4       	st.h	--r3,r4
80002c40:	70 09       	ld.w	r9,r8[0x0]
80002c42:	ed b9 00 03 	bld	r9,0x3
80002c46:	c1 01       	brne	80002c66 <udd_interrupt+0x2de>
80002c48:	30 8a       	mov	r10,8
80002c4a:	fe 69 01 60 	mov	r9,-130720
80002c4e:	93 0a       	st.w	r9[0x0],r10
	if (Is_udd_out_received(0)) {
		// OUT packet received
		udd_ctrl_out_received();
		return true;
	}
	if (Is_udd_nak_out(0)) {
80002c50:	70 08       	ld.w	r8,r8[0x0]
80002c52:	ed b8 00 00 	bld	r8,0x0
80002c56:	e0 80 01 3f 	breq	80002ed4 <udd_interrupt+0x54c>
		// Overflow on OUT packet
		udd_ack_nak_out(0);
80002c5a:	4d 48       	lddpc	r8,80002da8 <udd_interrupt+0x420>
80002c5c:	70 08       	ld.w	r8,r8[0x0]
80002c5e:	58 38       	cp.w	r8,3
}


static void udd_ctrl_overflow(void)
{
	if (Is_udd_in_send(0))
80002c60:	e0 81 01 3a 	brne	80002ed4 <udd_interrupt+0x54c>
80002c64:	c2 48       	rjmp	80002cac <udd_interrupt+0x324>
80002c66:	70 09       	ld.w	r9,r8[0x0]
80002c68:	ed b9 00 04 	bld	r9,0x4
		return;	// overflow ignored if IN data is received

	// The case of UDD_EPCTRL_DATA_IN is not managed
	// because the OUT endpoint is already free and OUT ZLP accepted

	if (UDD_EPCTRL_HANDSHAKE_WAIT_IN_ZLP == udd_ep_control_state) {
80002c6c:	c2 51       	brne	80002cb6 <udd_interrupt+0x32e>
80002c6e:	fe 69 01 60 	mov	r9,-130720
80002c72:	31 0a       	mov	r10,16
80002c74:	93 0a       	st.w	r9[0x0],r10
		// Overflow on OUT packet
		udd_ack_nak_out(0);
		udd_ctrl_overflow();
		return true;
	}
	if (Is_udd_nak_in(0)) {
80002c76:	70 08       	ld.w	r8,r8[0x0]
80002c78:	ed b8 00 01 	bld	r8,0x1
80002c7c:	e0 80 01 2c 	breq	80002ed4 <udd_interrupt+0x54c>
		// Underflow on IN packet
		udd_ack_nak_in(0);
80002c80:	4c aa       	lddpc	r10,80002da8 <udd_interrupt+0x420>
80002c82:	74 08       	ld.w	r8,r10[0x0]
80002c84:	58 18       	cp.w	r8,1
}


static void udd_ctrl_underflow(void)
{
	if (Is_udd_out_received(0))
80002c86:	c1 01       	brne	80002ca6 <udd_interrupt+0x31e>
80002c88:	30 3b       	mov	r11,3
80002c8a:	95 0b       	st.w	r10[0x0],r11
80002c8c:	e1 bb 00 00 	mfsr	r11,0x0
		return;	// underflow ignored if OUT data is received

	if (UDD_EPCTRL_DATA_OUT == udd_ep_control_state) {
80002c90:	d3 03       	ssrf	0x10
80002c92:	93 08       	st.w	r9[0x0],r8
80002c94:	fe 6a 01 f0 	mov	r10,-130576

static void udd_ctrl_send_zlp_in(void)
{
	irqflags_t flags;

	udd_ep_control_state = UDD_EPCTRL_HANDSHAKE_WAIT_IN_ZLP;
80002c98:	95 08       	st.w	r10[0x0],r8
80002c9a:	30 88       	mov	r8,8

static inline irqflags_t cpu_irq_save(void)
{
	irqflags_t flags;

	flags = sysreg_read(AVR32_SR);
80002c9c:	93 08       	st.w	r9[0x0],r8
80002c9e:	95 08       	st.w	r10[0x0],r8
	cpu_irq_disable();
80002ca0:	e3 bb 00 00 	mtsr	0x0,r11
	// Validate and send empty IN packet on control endpoint
	flags = cpu_irq_save();
	// Send ZLP on IN endpoint
	udd_ack_in_send(0);
	udd_enable_in_send_interrupt(0);
80002ca4:	c1 0b       	rjmp	80002ac4 <udd_interrupt+0x13c>
80002ca6:	58 48       	cp.w	r8,4
80002ca8:	e0 81 01 16 	brne	80002ed4 <udd_interrupt+0x54c>
	// To detect a protocol error, enable nak interrupt on data OUT phase
	udd_ack_nak_out(0);
80002cac:	e8 69 00 00 	mov	r9,524288
   // Don't work with sysreg_write(AVR32_SR, flags)
   if( cpu_irq_is_enabled_flags(flags) ) {
      cpu_irq_enable();
   }
#else
	sysreg_write(AVR32_SR, flags);
80002cb0:	fe 68 01 f0 	mov	r8,-130576
80002cb4:	ca 4b       	rjmp	80002bfc <udd_interrupt+0x274>

	if (UDD_EPCTRL_DATA_OUT == udd_ep_control_state) {
		// Host want to stop OUT transaction
		// then stop to wait OUT data phase and wait IN ZLP handshake
		udd_ctrl_send_zlp_in();
	} else if (UDD_EPCTRL_HANDSHAKE_WAIT_OUT_ZLP == udd_ep_control_state) {
80002cb6:	4b e7       	lddpc	r7,80002dac <udd_interrupt+0x424>
80002cb8:	fe 69 01 34 	mov	r9,-130764
		// A OUT handshake is waiting by device,
		// but host want extra IN data then stall extra IN data
		udd_enable_stall_handshake(0);
80002cbc:	0e 9c       	mov	r12,r7
80002cbe:	30 06       	mov	r6,0
80002cc0:	fe 6b 00 00 	mov	r11,-131072
80002cc4:	fc 13 02 00 	movh	r3,0x200
80002cc8:	e0 64 10 00 	mov	r4,4096
80002ccc:	76 45       	ld.w	r5,r11[0x10]
80002cce:	e6 06 09 4a 	lsl	r10,r3,r6
	for (ep = 1; ep <= USB_DEVICE_MAX_EP; ep++) {
		// Get job corresponding at endpoint
		ptr_job = &udd_ep_job[ep - 1];
		
		// Check DMA event
		if (Is_udd_endpoint_dma_interrupt_enabled(ep)
80002cd2:	ec c8 ff ff 	sub	r8,r6,-1
80002cd6:	f2 c2 ff 70 	sub	r2,r9,-144
			// Call callback to signal end of transfer
			udd_ep_finish_job(ptr_job, false);
			return true;
		}
		// Check empty bank interrupt event
		if (Is_udd_endpoint_interrupt_enabled(ep)) {
80002cda:	f5 e5 00 05 	and	r5,r10,r5
	for (ep = 1; ep <= USB_DEVICE_MAX_EP; ep++) {
		// Get job corresponding at endpoint
		ptr_job = &udd_ep_job[ep - 1];
		
		// Check DMA event
		if (Is_udd_endpoint_dma_interrupt_enabled(ep)
80002cde:	10 96       	mov	r6,r8
80002ce0:	fe 6e 00 00 	mov	lr,-131072
		// then stop to wait OUT data phase and wait IN ZLP handshake
		udd_ctrl_send_zlp_in();
	} else if (UDD_EPCTRL_HANDSHAKE_WAIT_OUT_ZLP == udd_ep_control_state) {
		// A OUT handshake is waiting by device,
		// but host want extra IN data then stall extra IN data
		udd_enable_stall_handshake(0);
80002ce4:	c4 20       	breq	80002d68 <udd_interrupt+0x3e0>
			// Call callback to signal end of transfer
			udd_ep_finish_job(ptr_job, false);
			return true;
		}
		// Check empty bank interrupt event
		if (Is_udd_endpoint_interrupt_enabled(ep)) {
80002ce6:	76 15       	ld.w	r5,r11[0x4]
80002ce8:	f5 e5 00 05 	and	r5,r10,r5
	for (ep = 1; ep <= USB_DEVICE_MAX_EP; ep++) {
		// Get job corresponding at endpoint
		ptr_job = &udd_ep_job[ep - 1];
		
		// Check DMA event
		if (Is_udd_endpoint_dma_interrupt_enabled(ep)
80002cec:	c3 e0       	breq	80002d68 <udd_interrupt+0x3e0>
{
	udd_ep_id_t ep;
	udd_ep_job_t *ptr_job;

	// For each endpoint different of control endpoint (0)
	for (ep = 1; ep <= USB_DEVICE_MAX_EP; ep++) {
80002cee:	9d 5a       	st.w	lr[0x14],r10
		// Get job corresponding at endpoint
		ptr_job = &udd_ep_job[ep - 1];
		
		// Check DMA event
		if (Is_udd_endpoint_dma_interrupt_enabled(ep)
80002cf0:	78 09       	ld.w	r9,r12[0x0]
80002cf2:	ed b9 00 1d 	bld	r9,0x1d
				&& Is_udd_endpoint_dma_interrupt(ep)) {
80002cf6:	c0 31       	brne	80002cfc <udd_interrupt+0x374>
	for (ep = 1; ep <= USB_DEVICE_MAX_EP; ep++) {
		// Get job corresponding at endpoint
		ptr_job = &udd_ep_job[ep - 1];
		
		// Check DMA event
		if (Is_udd_endpoint_dma_interrupt_enabled(ep)
80002cf8:	9d 3a       	st.w	lr[0xc],r10
80002cfa:	c0 a8       	rjmp	80002d0e <udd_interrupt+0x386>
80002cfc:	78 2a       	ld.w	r10,r12[0x8]
				&& Is_udd_endpoint_dma_interrupt(ep)) {
			uint32_t nb_remaining;
			udd_disable_endpoint_dma_interrupt(ep);
80002cfe:	f0 09 15 04 	lsl	r9,r8,0x4
			if (ptr_job->b_raise_dma) {
80002d02:	e0 39 fd 00 	sub	r9,130304
80002d06:	72 39       	ld.w	r9,r9[0xc]
				// In case of manual raise DMA interrupt
				// to process a ZLP packet
				udd_raise_endpoint_dma_interrupt(ep);
80002d08:	b1 89       	lsr	r9,0x10
80002d0a:	12 1a       	sub	r10,r9
				// Save number of data no transfered
				nb_remaining = (udd_endpoint_dma_get_status(ep) &
						AVR32_USBB_UDDMA1_STATUS_CH_BYTE_CNT_MASK)
						>> AVR32_USBB_UDDMA1_STATUS_CH_BYTE_CNT_OFFSET;
				// Update number of data transfered
				ptr_job->buf_size -= nb_remaining;
80002d0c:	99 2a       	st.w	r12[0x8],r10
				// In case of manual raise DMA interrupt
				// to process a ZLP packet
				udd_raise_endpoint_dma_interrupt(ep);
			}else{
				// Save number of data no transfered
				nb_remaining = (udd_endpoint_dma_get_status(ep) &
80002d0e:	f0 09 15 02 	lsl	r9,r8,0x2
80002d12:	fe 6b 01 00 	mov	r11,-130816
80002d16:	f2 0b 00 0a 	add	r10,r9,r11
						AVR32_USBB_UDDMA1_STATUS_CH_BYTE_CNT_MASK)
						>> AVR32_USBB_UDDMA1_STATUS_CH_BYTE_CNT_OFFSET;
				// Update number of data transfered
				ptr_job->buf_size -= nb_remaining;
80002d1a:	74 0a       	ld.w	r10,r10[0x0]
80002d1c:	ed ba 00 08 	bld	r10,0x8
			}

			if (Is_udd_endpoint_in(ep)) {
80002d20:	c4 01       	brne	80002da0 <udd_interrupt+0x418>
80002d22:	78 0a       	ld.w	r10,r12[0x0]
80002d24:	ed ba 00 1e 	bld	r10,0x1e
80002d28:	c3 c1       	brne	80002da0 <udd_interrupt+0x418>
80002d2a:	fe 61 01 60 	mov	r1,-130720
80002d2e:	30 1b       	mov	r11,1
80002d30:	f2 01 00 0a 	add	r10,r9,r1
				// Transfer complet on IN
				if (ptr_job->b_send_zlp) {
80002d34:	95 0b       	st.w	r10[0x0],r11
80002d36:	fe 6e 01 30 	mov	lr,-130768
					// Need to send a ZLP after data transfer
					// enable interrupt to wait a free bank to sent ZLP
					udd_ack_in_send(ep);
80002d3a:	fe 61 01 90 	mov	r1,-130672
80002d3e:	f2 0e 00 0a 	add	r10,r9,lr
80002d42:	f2 01 00 0c 	add	r12,r9,r1
					if (Is_udd_write_enabled(ep)) {
80002d46:	74 0a       	ld.w	r10,r10[0x0]
80002d48:	e0 39 fe 10 	sub	r9,130576
						udd_raise_in_send(ep);
80002d4c:	e6 1a 00 01 	andh	r10,0x1,COH
				// Transfer complet on IN
				if (ptr_job->b_send_zlp) {
					// Need to send a ZLP after data transfer
					// enable interrupt to wait a free bank to sent ZLP
					udd_ack_in_send(ep);
					if (Is_udd_write_enabled(ep)) {
80002d50:	f9 fb 1a 00 	st.wne	r12[0x0],r11
						udd_raise_in_send(ep);
80002d54:	30 1a       	mov	r10,1
				// Transfer complet on IN
				if (ptr_job->b_send_zlp) {
					// Need to send a ZLP after data transfer
					// enable interrupt to wait a free bank to sent ZLP
					udd_ack_in_send(ep);
					if (Is_udd_write_enabled(ep)) {
80002d56:	93 0a       	st.w	r9[0x0],r10
						udd_raise_in_send(ep);
					}
					udd_enable_in_send_interrupt(ep);
80002d58:	e0 69 10 00 	mov	r9,4096
				// Transfer complet on IN
				if (ptr_job->b_send_zlp) {
					// Need to send a ZLP after data transfer
					// enable interrupt to wait a free bank to sent ZLP
					udd_ack_in_send(ep);
					if (Is_udd_write_enabled(ep)) {
80002d5c:	f2 08 09 48 	lsl	r8,r9,r8
						udd_raise_in_send(ep);
80002d60:	fe 69 00 00 	mov	r9,-131072
					}
					udd_enable_in_send_interrupt(ep);
80002d64:	93 68       	st.w	r9[0x18],r8
80002d66:	cb 78       	rjmp	80002ed4 <udd_interrupt+0x54c>
					udd_enable_endpoint_interrupt(ep);
80002d68:	76 4a       	ld.w	r10,r11[0x10]
80002d6a:	e8 08 09 45 	lsl	r5,r4,r8
80002d6e:	eb ea 00 0a 	and	r10,r5,r10
80002d72:	c4 50       	breq	80002dfc <udd_interrupt+0x474>
80002d74:	64 0e       	ld.w	lr,r2[0x0]
80002d76:	e0 71 fe d0 	mov	r1,130768
			// Call callback to signal end of transfer
			udd_ep_finish_job(ptr_job, false);
			return true;
		}
		// Check empty bank interrupt event
		if (Is_udd_endpoint_interrupt_enabled(ep)) {
80002d7a:	fd de c0 01 	bfextu	lr,lr,0x0,0x1
80002d7e:	f2 01 00 0a 	add	r10,r9,r1
80002d82:	58 0e       	cp.w	lr,0
			if (Is_udd_in_send_interrupt_enabled(ep) && Is_udd_in_send(ep)) {
80002d84:	c1 60       	breq	80002db0 <udd_interrupt+0x428>
			// Call callback to signal end of transfer
			udd_ep_finish_job(ptr_job, false);
			return true;
		}
		// Check empty bank interrupt event
		if (Is_udd_endpoint_interrupt_enabled(ep)) {
80002d86:	72 0e       	ld.w	lr,r9[0x0]
80002d88:	ed be 00 00 	bld	lr,0x0
			if (Is_udd_in_send_interrupt_enabled(ep) && Is_udd_in_send(ep)) {
80002d8c:	c1 21       	brne	80002db0 <udd_interrupt+0x428>
			// Call callback to signal end of transfer
			udd_ep_finish_job(ptr_job, false);
			return true;
		}
		// Check empty bank interrupt event
		if (Is_udd_endpoint_interrupt_enabled(ep)) {
80002d8e:	f2 c8 ff 10 	sub	r8,r9,-240
			if (Is_udd_in_send_interrupt_enabled(ep) && Is_udd_in_send(ep)) {
80002d92:	30 1a       	mov	r10,1
80002d94:	91 0a       	st.w	r8[0x0],r10
80002d96:	2d 09       	sub	r9,-48
80002d98:	93 0a       	st.w	r9[0x0],r10
80002d9a:	e0 69 40 00 	mov	r9,16384
				udd_disable_in_send_interrupt(ep);
80002d9e:	91 09       	st.w	r8[0x0],r9
80002da0:	30 0b       	mov	r11,0
80002da2:	fe b0 fa f1 	rcall	80002384 <udd_ep_finish_job>
				// One bank is free then send a ZLP
				udd_ack_in_send(ep);
80002da6:	c9 78       	rjmp	80002ed4 <udd_interrupt+0x54c>
80002da8:	00 00       	add	r0,r0
				udd_ack_fifocon(ep);
80002daa:	07 1c       	ld.sh	r12,r3++
80002dac:	00 00       	add	r0,r0
80002dae:	06 e8       	st.h	--r3,r8
				udd_ep_finish_job(ptr_job, false);
80002db0:	64 0e       	ld.w	lr,r2[0x0]
80002db2:	e2 1e 10 00 	andl	lr,0x1000,COH
80002db6:	c2 30       	breq	80002dfc <udd_interrupt+0x474>
80002db8:	72 0e       	ld.w	lr,r9[0x0]
80002dba:	fd de c1 82 	bfextu	lr,lr,0xc,0x2
80002dbe:	c1 f1       	brne	80002dfc <udd_interrupt+0x474>
80002dc0:	fe 6b 02 20 	mov	r11,-130528
				return true;
			}
			if (Is_udd_bank_interrupt_enabled(ep) && (0==udd_nb_busy_bank(ep))) {
80002dc4:	f4 0b 00 08 	add	r8,r10,r11
80002dc8:	e0 69 10 00 	mov	r9,4096
80002dcc:	91 09       	st.w	r8[0x0],r9
80002dce:	fe 68 00 00 	mov	r8,-131072
80002dd2:	91 55       	st.w	r8[0x14],r5
				// End of background transfer on IN endpoint
				udd_disable_bank_interrupt(ep);
80002dd4:	78 08       	ld.w	r8,r12[0x0]
80002dd6:	f1 de d3 81 	bfins	r8,lr,0x1c,0x1
80002dda:	99 08       	st.w	r12[0x0],r8
80002ddc:	fe 68 01 00 	mov	r8,-130816
80002de0:	f4 08 00 09 	add	r9,r10,r8
				udd_disable_endpoint_interrupt(ep);
80002de4:	72 08       	ld.w	r8,r9[0x0]
80002de6:	a9 d8       	cbr	r8,0x9

				Assert(ptr_job->stall_requested);
				// A stall has been requested during backgound transfer
				ptr_job->stall_requested = false;
80002de8:	93 08       	st.w	r9[0x0],r8
80002dea:	e0 3a fe 10 	sub	r10,130576
80002dee:	e8 68 00 00 	mov	r8,524288
				udd_disable_endpoint_bank_autoswitch(ep);
80002df2:	95 08       	st.w	r10[0x0],r8
80002df4:	e4 68 00 00 	mov	r8,262144
80002df8:	95 08       	st.w	r10[0x0],r8
80002dfa:	c6 d8       	rjmp	80002ed4 <udd_interrupt+0x54c>
80002dfc:	2f 0c       	sub	r12,-16
				udd_enable_stall_handshake(ep);
80002dfe:	2f c9       	sub	r9,-4
80002e00:	58 38       	cp.w	r8,3
80002e02:	fe 91 ff 65 	brne	80002ccc <udd_interrupt+0x344>
80002e06:	c6 e8       	rjmp	80002ee2 <udd_interrupt+0x55a>
				udd_reset_data_toggle(ep);
80002e08:	30 89       	mov	r9,8
80002e0a:	ee c6 ff d0 	sub	r6,r7,-48
80002e0e:	91 29       	st.w	r8[0x8],r9
80002e10:	0e 9c       	mov	r12,r7
80002e12:	30 1b       	mov	r11,1
{
	udd_ep_id_t ep;
	udd_ep_job_t *ptr_job;

	// For each endpoint different of control endpoint (0)
	for (ep = 1; ep <= USB_DEVICE_MAX_EP; ep++) {
80002e14:	2f 07       	sub	r7,-16
80002e16:	fe b0 fa b7 	rcall	80002384 <udd_ep_finish_job>
80002e1a:	0c 37       	cp.w	r7,r6
		goto udd_interrupt_end;	// Interrupt acked by bulk/interrupt/isochronous endpoint managed
#endif

	// USB bus reset detection
	if (Is_udd_reset()) {
		udd_ack_reset();
80002e1c:	cf a1       	brne	80002e10 <udd_interrupt+0x488>
#if __ICCAVR32__
#if !defined(AVR32_USBB_IRQ_GROUP)
#define AVR32_USBB_IRQ_GROUP AVR32_USB_IRQ_GROUP
#endif
#endif
ISR(udd_interrupt, AVR32_USBB_IRQ_GROUP, UDD_USB_INT_LEVEL)
80002e1e:	e0 a0 04 09 	rcall	80003630 <udc_reset>
		goto udd_interrupt_end;	// Interrupt acked by bulk/interrupt/isochronous endpoint managed
#endif

	// USB bus reset detection
	if (Is_udd_reset()) {
		udd_ack_reset();
80002e22:	fe b0 fc da 	rcall	800027d6 <udd_reset_ep_ctrl>
static void udd_ep_job_table_kill(void)
{
	uint8_t i;
	// For each endpoint, kill job
	for (i = 0; i < USB_DEVICE_MAX_EP; i++) {
		udd_ep_finish_job(&udd_ep_job[i], true);
80002e26:	fe b0 fb a7 	rcall	80002574 <udd_ctrl_init>
80002e2a:	c5 58       	rjmp	80002ed4 <udd_interrupt+0x54c>
80002e2c:	70 49       	ld.w	r9,r8[0x10]

static void udd_ep_job_table_kill(void)
{
	uint8_t i;
	// For each endpoint, kill job
	for (i = 0; i < USB_DEVICE_MAX_EP; i++) {
80002e2e:	ed b9 00 00 	bld	r9,0x0
		// Abort all jobs on-going
#if (0!=USB_DEVICE_MAX_EP)
		udd_ep_job_table_kill();
#endif
		// Reset USB Device Stack Core
		udc_reset();
80002e32:	c1 41       	brne	80002e5a <udd_interrupt+0x4d2>
80002e34:	70 19       	ld.w	r9,r8[0x4]
		// Reset endpoint control
		udd_reset_ep_ctrl();
80002e36:	ed b9 00 00 	bld	r9,0x0
		// Reset endpoint control management
		udd_ctrl_init();
80002e3a:	c1 01       	brne	80002e5a <udd_interrupt+0x4d2>
80002e3c:	f0 f9 08 00 	ld.w	r9,r8[2048]
		goto udd_interrupt_end;
	}

	if (Is_udd_suspend_interrupt_enabled() && Is_udd_suspend()) {
80002e40:	af c9       	cbr	r9,0xe
80002e42:	f1 49 08 00 	st.w	r8[2048],r9
80002e46:	30 19       	mov	r9,1
80002e48:	91 59       	st.w	r8[0x14],r9
80002e4a:	31 09       	mov	r9,16
80002e4c:	91 69       	st.w	r8[0x18],r9
80002e4e:	f0 f9 08 00 	ld.w	r9,r8[2048]
		otg_unfreeze_clock();
80002e52:	af a9       	sbr	r9,0xe
80002e54:	f1 49 08 00 	st.w	r8[2048],r9
80002e58:	c2 18       	rjmp	80002e9a <udd_interrupt+0x512>
		// The suspend interrupt is automatic acked when a wakeup occur
		udd_disable_suspend_interrupt();
80002e5a:	fe 68 00 00 	mov	r8,-131072
		udd_enable_wake_up_interrupt();
80002e5e:	70 49       	ld.w	r9,r8[0x10]
80002e60:	ed b9 00 04 	bld	r9,0x4
		otg_freeze_clock();	// Mandatory to exit of sleep mode after a wakeup event
80002e64:	c1 e1       	brne	80002ea0 <udd_interrupt+0x518>
80002e66:	70 19       	ld.w	r9,r8[0x4]
80002e68:	ed b9 00 04 	bld	r9,0x4
80002e6c:	c1 a1       	brne	80002ea0 <udd_interrupt+0x518>
		UDC_SUSPEND_EVENT();
#endif
		goto udd_interrupt_end;
	}

	if (Is_udd_wake_up_interrupt_enabled() && Is_udd_wake_up()) {
80002e6e:	f0 f9 08 00 	ld.w	r9,r8[2048]
80002e72:	10 9a       	mov	r10,r8
80002e74:	af c9       	cbr	r9,0xe
80002e76:	f1 49 08 00 	st.w	r8[2048],r9
80002e7a:	c0 58       	rjmp	80002e84 <udd_interrupt+0x4fc>
80002e7c:	74 18       	ld.w	r8,r10[0x4]
80002e7e:	ed b8 00 00 	bld	r8,0x0
		// Ack wakeup interrupt and enable suspend interrupt
		otg_unfreeze_clock();
80002e82:	c0 60       	breq	80002e8e <udd_interrupt+0x506>
80002e84:	f4 f8 08 04 	ld.w	r8,r10[2052]
80002e88:	ed b8 00 0e 	bld	r8,0xe
80002e8c:	cf 81       	brne	80002e7c <udd_interrupt+0x4f4>
		// Check USB clock ready after suspend and eventually sleep USB clock
		while( !Is_clock_usable() ) {
80002e8e:	fe 68 00 00 	mov	r8,-131072
			if(Is_udd_suspend()) break;   // In case of USB state change in HS
80002e92:	31 09       	mov	r9,16
80002e94:	91 59       	st.w	r8[0x14],r9
80002e96:	30 1c       	mov	r12,1

	if (Is_udd_wake_up_interrupt_enabled() && Is_udd_wake_up()) {
		// Ack wakeup interrupt and enable suspend interrupt
		otg_unfreeze_clock();
		// Check USB clock ready after suspend and eventually sleep USB clock
		while( !Is_clock_usable() ) {
80002e98:	91 6c       	st.w	r8[0x18],r12
80002e9a:	fe b0 fb 3b 	rcall	80002510 <udd_sleep_mode>
80002e9e:	c1 b8       	rjmp	80002ed4 <udd_interrupt+0x54c>
80002ea0:	fe 68 00 00 	mov	r8,-131072
			if(Is_udd_suspend()) break;   // In case of USB state change in HS
		};
		// The wakeup interrupt is automatic acked when a suspend occur
		udd_disable_wake_up_interrupt();
80002ea4:	f0 f9 08 04 	ld.w	r9,r8[2052]
80002ea8:	ed b9 00 01 	bld	r9,0x1
		udd_enable_suspend_interrupt();
80002eac:	c1 41       	brne	80002ed4 <udd_interrupt+0x54c>
		udd_sleep_mode(true);	// Enter in IDLE mode
80002eae:	f0 f9 08 00 	ld.w	r9,r8[2048]
#ifdef UDC_RESUME_EVENT
		UDC_RESUME_EVENT();
#endif
		goto udd_interrupt_end;
80002eb2:	af c9       	cbr	r9,0xe
	}

	if (Is_udd_vbus_transition()) {
80002eb4:	f1 49 08 00 	st.w	r8[2048],r9
80002eb8:	30 29       	mov	r9,2
80002eba:	f1 49 08 08 	st.w	r8[2056],r9
80002ebe:	f0 f9 08 00 	ld.w	r9,r8[2048]
		// Ack VBus transition and send status to high level
		otg_unfreeze_clock();
80002ec2:	af a9       	sbr	r9,0xe
80002ec4:	f1 49 08 00 	st.w	r8[2048],r9
80002ec8:	f0 fc 08 04 	ld.w	r12,r8[2052]
		udd_ack_vbus_transition();
80002ecc:	f9 dc c1 61 	bfextu	r12,r12,0xb,0x1
80002ed0:	e0 a0 05 d0 	rcall	80003a70 <stdio_usb_vbus_event>
		otg_freeze_clock();
80002ed4:	fe 68 00 00 	mov	r8,-131072
80002ed8:	f0 f8 08 18 	ld.w	r8,r8[2072]
#ifdef UDC_VBUS_EVENT
		UDC_VBUS_EVENT(Is_udd_vbus_high());
80002edc:	e3 cd 40 fe 	ldm	sp++,r1-r7,lr
80002ee0:	d6 03       	rete
80002ee2:	fe 68 00 00 	mov	r8,-131072
80002ee6:	70 1c       	ld.w	r12,r8[0x4]
#endif
		goto udd_interrupt_end;
	}
udd_interrupt_end:
	otg_data_memory_barrier();
80002ee8:	e2 1c 00 08 	andl	r12,0x8,COH
80002eec:	c8 e1       	brne	80002e08 <udd_interrupt+0x480>
80002eee:	c9 fb       	rjmp	80002e2c <udd_interrupt+0x4a4>

80002ef0 <_stext>:
	return;
}
80002ef0:	48 dd       	lddpc	sp,80002f24 <udata_clear_loop_end+0x4>
80002ef2:	fe c0 d8 f2 	sub	r0,pc,-9998
	if (udd_ep_interrupt())
		goto udd_interrupt_end;	// Interrupt acked by bulk/interrupt/isochronous endpoint managed
#endif

	// USB bus reset detection
	if (Is_udd_reset()) {
80002ef6:	e3 b0 00 01 	mtsr	0x4,r0
80002efa:	d5 53       	csrf	0x15
80002efc:	48 b0       	lddpc	r0,80002f28 <udata_clear_loop_end+0x8>
80002efe:	48 c1       	lddpc	r1,80002f2c <udata_clear_loop_end+0xc>
80002f00:	02 30       	cp.w	r0,r1
80002f02:	c0 62       	brcc	80002f0e <idata_load_loop_end>
80002f04:	48 b2       	lddpc	r2,80002f30 <udata_clear_loop_end+0x10>

80002f06 <idata_load_loop>:
80002f06:	a5 05       	ld.d	r4,r2++
80002f08:	a1 24       	st.d	r0++,r4
80002f0a:	02 30       	cp.w	r0,r1
80002f0c:	cf d3       	brcs	80002f06 <idata_load_loop>

80002f0e <idata_load_loop_end>:
80002f0e:	48 a0       	lddpc	r0,80002f34 <udata_clear_loop_end+0x14>
80002f10:	48 a1       	lddpc	r1,80002f38 <udata_clear_loop_end+0x18>
80002f12:	02 30       	cp.w	r0,r1
80002f14:	c0 62       	brcc	80002f20 <udata_clear_loop_end>
80002f16:	30 02       	mov	r2,0
80002f18:	30 03       	mov	r3,0

80002f1a <udata_clear_loop>:
80002f1a:	a1 22       	st.d	r0++,r2
80002f1c:	02 30       	cp.w	r0,r1
80002f1e:	cf e3       	brcs	80002f1a <udata_clear_loop>

80002f20 <udata_clear_loop_end>:
80002f20:	fe cf f2 6c 	sub	pc,pc,-3476
80002f24:	00 01       	add	r1,r0
80002f26:	00 00       	add	r0,r0
80002f28:	00 00       	add	r0,r0
80002f2a:	00 08       	add	r8,r0
80002f2c:	00 00       	add	r0,r0
80002f2e:	05 d8       	ld.ub	r8,r2[0x5]
80002f30:	80 00       	ld.sh	r0,r0[0x0]
80002f32:	59 70       	cp.w	r0,23
80002f34:	00 00       	add	r0,r0
80002f36:	05 d8       	ld.ub	r8,r2[0x5]
80002f38:	00 00       	add	r0,r0
80002f3a:	0c c8       	st.b	r6++,r8

80002f3c <sysclk_init>:
}
#endif // CONFIG_USBCLK_SOURCE


void sysclk_init(void)
{
80002f3c:	d4 21       	pushm	r4-r7,lr

static inline irqflags_t cpu_irq_save(void)
{
	irqflags_t flags;

	flags = sysreg_read(AVR32_SR);
80002f3e:	e1 ba 00 00 	mfsr	r10,0x0
	cpu_irq_disable();
80002f42:	d3 03       	ssrf	0x10
#ifdef BOARD_OSC0_HZ
	case OSC_ID_OSC0:
		oscctrl = OSC0_STARTUP_VALUE <<
				AVR32_PM_OSCCTRL0_STARTUP_OFFSET;
		oscctrl |= OSC0_MODE_VALUE << AVR32_PM_OSCCTRL0_MODE_OFFSET;
		AVR32_PM.oscctrl0 = oscctrl;
80002f44:	fe 78 0c 00 	mov	r8,-62464
80002f48:	e0 69 03 07 	mov	r9,775
80002f4c:	91 a9       	st.w	r8[0x28],r9
		AVR32_PM.mcctrl |= 1U << AVR32_PM_MCCTRL_OSC0EN;
80002f4e:	70 09       	ld.w	r9,r8[0x0]
80002f50:	a3 a9       	sbr	r9,0x2
80002f52:	91 09       	st.w	r8[0x0],r9
   // Don't work with sysreg_write(AVR32_SR, flags)
   if( cpu_irq_is_enabled_flags(flags) ) {
      cpu_irq_enable();
   }
#else
	sysreg_write(AVR32_SR, flags);
80002f54:	e3 ba 00 00 	mtsr	0x0,r10
	cpu_irq_restore(flags);
}

static inline bool osc_is_ready(uint8_t id)
{
	return !!(AVR32_PM.poscsr & (1U << (AVR32_PM_POSCSR_OSC0RDY + id)));
80002f58:	71 59       	ld.w	r9,r8[0x54]
80002f5a:	fe 77 0c 00 	mov	r7,-62464
 *
 * \param id A number identifying the oscillator to wait for.
 */
static inline void osc_wait_ready(uint8_t id)
{
	while (!osc_is_ready(id)) {
80002f5e:	e2 19 00 80 	andl	r9,0x80,COH
80002f62:	cf b0       	breq	80002f58 <sysclk_init+0x1c>
#ifdef BOARD_OSC0_HZ
	case SYSCLK_SRC_OSC0:
		osc_enable(0);
		osc_wait_ready(0);
		// Set a flash wait state depending on the new cpu frequency.
		flash_set_bus_freq(BOARD_OSC0_HZ);
80002f64:	e0 6c 1b 00 	mov	r12,6912
80002f68:	ea 1c 00 b7 	orh	r12,0xb7
80002f6c:	fe b0 f8 5e 	rcall	80002028 <flashc_set_bus_freq>

static inline irqflags_t cpu_irq_save(void)
{
	irqflags_t flags;

	flags = sysreg_read(AVR32_SR);
80002f70:	e1 b9 00 00 	mfsr	r9,0x0
	cpu_irq_disable();
80002f74:	d3 03       	ssrf	0x10
	uint32_t   mcctrl;

	Assert(src <= SYSCLK_SRC_PLL0);

	flags = cpu_irq_save();
	mcctrl = AVR32_PM.mcctrl & ~AVR32_PM_MCCTRL_MCSEL_MASK;
80002f76:	6e 08       	ld.w	r8,r7[0x0]
80002f78:	e0 18 ff fc 	andl	r8,0xfffc
	mcctrl |= src << AVR32_PM_MCCTRL_MCSEL;
80002f7c:	a1 a8       	sbr	r8,0x0
	AVR32_PM.mcctrl = mcctrl;
80002f7e:	8f 08       	st.w	r7[0x0],r8
   // Don't work with sysreg_write(AVR32_SR, flags)
   if( cpu_irq_is_enabled_flags(flags) ) {
      cpu_irq_enable();
   }
#else
	sysreg_write(AVR32_SR, flags);
80002f80:	e3 b9 00 00 	mtsr	0x0,r9
		break;
	}

	/* If the user has specified clock masks, enable only requested clocks */
#if defined(CONFIG_SYSCLK_INIT_CPUMASK)
	AVR32_PM.cpumask = SYSCLK_INIT_MINIMAL_CPUMASK | CONFIG_SYSCLK_INIT_CPUMASK;
80002f84:	e0 78 00 02 	mov	r8,65538
80002f88:	8f 28       	st.w	r7[0x8],r8
#endif
#if defined(CONFIG_SYSCLK_INIT_PBAMASK)
	AVR32_PM.pbamask = SYSCLK_INIT_MINIMAL_PBAMASK | CONFIG_SYSCLK_INIT_PBAMASK;
80002f8a:	30 b8       	mov	r8,11
80002f8c:	ea 18 00 18 	orh	r8,0x18
80002f90:	8f 48       	st.w	r7[0x10],r8
#endif
#if defined(CONFIG_SYSCLK_INIT_PBBMASK)
	AVR32_PM.pbbmask = SYSCLK_INIT_MINIMAL_PBBMASK | CONFIG_SYSCLK_INIT_PBBMASK;
80002f92:	30 08       	mov	r8,0
80002f94:	8f 58       	st.w	r7[0x14],r8
#endif
#if defined(CONFIG_SYSCLK_INIT_HSBMASK)
	AVR32_PM.hsbmask = SYSCLK_INIT_MINIMAL_HSBMASK | CONFIG_SYSCLK_INIT_HSBMASK;
80002f96:	e0 68 0e 03 	mov	r8,3587
80002f9a:	8f 38       	st.w	r7[0xc],r8

#if (defined CONFIG_SYSCLK_DEFAULT_RETURNS_SLOW_OSC)
	/* Signal that the internal frequencies are setup */
	sysclk_initialized = true;
#endif
}
80002f9c:	d8 22       	popm	r4-r7,pc
80002f9e:	d7 03       	nop

80002fa0 <sysclk_priv_enable_module>:
80002fa0:	e1 b9 00 00 	mfsr	r9,0x0
static inline irqflags_t cpu_irq_save(void)
{
	irqflags_t flags;

	flags = sysreg_read(AVR32_SR);
	cpu_irq_disable();
80002fa4:	d3 03       	ssrf	0x10

	/*
	 * Poll MSKRDY before changing mask rather than after, as it's
	 * highly unlikely to actually be cleared at this point.
	 */
	while (!(AVR32_PM.poscsr & (1U << AVR32_PM_POSCSR_MSKRDY))) {
80002fa6:	fe 7a 0c 00 	mov	r10,-62464
80002faa:	75 58       	ld.w	r8,r10[0x54]
80002fac:	ed b8 00 06 	bld	r8,0x6
80002fb0:	cf d1       	brne	80002faa <sysclk_priv_enable_module+0xa>
		/* Do nothing */
	}

	/* Enable the clock */
	mask = *(&AVR32_PM.cpumask + bus_id);
	mask |= 1U << module_index;
80002fb2:	30 18       	mov	r8,1
	while (!(AVR32_PM.poscsr & (1U << AVR32_PM_POSCSR_MSKRDY))) {
		/* Do nothing */
	}

	/* Enable the clock */
	mask = *(&AVR32_PM.cpumask + bus_id);
80002fb4:	a3 6c       	lsl	r12,0x2
	mask |= 1U << module_index;
80002fb6:	f0 0b 09 4b 	lsl	r11,r8,r11
	while (!(AVR32_PM.poscsr & (1U << AVR32_PM_POSCSR_MSKRDY))) {
		/* Do nothing */
	}

	/* Enable the clock */
	mask = *(&AVR32_PM.cpumask + bus_id);
80002fba:	e0 2c f3 f8 	sub	r12,62456
80002fbe:	78 08       	ld.w	r8,r12[0x0]
	mask |= 1U << module_index;
80002fc0:	10 4b       	or	r11,r8
	*(&AVR32_PM.cpumask + bus_id) = mask;
80002fc2:	99 0b       	st.w	r12[0x0],r11
   // Don't work with sysreg_write(AVR32_SR, flags)
   if( cpu_irq_is_enabled_flags(flags) ) {
      cpu_irq_enable();
   }
#else
	sysreg_write(AVR32_SR, flags);
80002fc4:	e3 b9 00 00 	mtsr	0x0,r9

	cpu_irq_restore(flags);
}
80002fc8:	5e fc       	retal	r12
80002fca:	d7 03       	nop

80002fcc <sysclk_enable_pbb_module>:
/**
 * \brief Enable a module clock derived from the PBB clock
 * \param index Index of the module clock in the PBBMASK register
 */
void sysclk_enable_pbb_module(unsigned int index)
{
80002fcc:	d4 21       	pushm	r4-r7,lr
80002fce:	58 9c       	cp.w	r12,9
80002fd0:	5f 07       	sreq	r7
80002fd2:	18 96       	mov	r6,r12

static inline irqflags_t cpu_irq_save(void)
{
	irqflags_t flags;

	flags = sysreg_read(AVR32_SR);
80002fd4:	e1 b5 00 00 	mfsr	r5,0x0
	cpu_irq_disable();
80002fd8:	d3 03       	ssrf	0x10
		pbus_id = 1;

	/* Enable the bridge if necessary */
	flags = cpu_irq_save();

	if (!sysclk_bus_refcount[pbus_id])
80002fda:	48 e8       	lddpc	r8,80003010 <sysclk_enable_pbb_module+0x44>
80002fdc:	f0 07 07 09 	ld.ub	r9,r8[r7]
80002fe0:	30 08       	mov	r8,0
80002fe2:	f0 09 18 00 	cp.b	r9,r8
80002fe6:	c0 91       	brne	80002ff8 <sysclk_enable_pbb_module+0x2c>
 * \brief Enable a module clock derived from the HSB clock
 * \param index Index of the module clock in the HSBMASK register
 */
static inline void sysclk_enable_hsb_module(unsigned int index)
{
	sysclk_priv_enable_module(AVR32_PM_CLK_GRP_HSB, index);
80002fe8:	ee 0b 15 01 	lsl	r11,r7,0x1
80002fec:	30 1c       	mov	r12,1
80002fee:	f9 bb 01 06 	movne	r11,6
80002ff2:	f9 bb 00 02 	moveq	r11,2
80002ff6:	cd 5f       	rcall	80002fa0 <sysclk_priv_enable_module>
80002ff8:	48 68       	lddpc	r8,80003010 <sysclk_enable_pbb_module+0x44>
		sysclk_enable_hsb_module(2 + (4 * pbus_id));
	sysclk_bus_refcount[pbus_id]++;
80002ffa:	f0 07 07 09 	ld.ub	r9,r8[r7]
80002ffe:	2f f9       	sub	r9,-1
80003000:	f0 07 0b 09 	st.b	r8[r7],r9
80003004:	e3 b5 00 00 	mtsr	0x0,r5
   // Don't work with sysreg_write(AVR32_SR, flags)
   if( cpu_irq_is_enabled_flags(flags) ) {
      cpu_irq_enable();
   }
#else
	sysreg_write(AVR32_SR, flags);
80003008:	30 3c       	mov	r12,3

	cpu_irq_restore(flags);

	/* Enable the module */
	sysclk_priv_enable_module(AVR32_PM_CLK_GRP_PBB, index);
8000300a:	0c 9b       	mov	r11,r6
8000300c:	cc af       	rcall	80002fa0 <sysclk_priv_enable_module>
8000300e:	d8 22       	popm	r4-r7,pc
80003010:	00 00       	add	r0,r0
}
80003012:	07 24       	ld.uh	r4,r3++

80003014 <sysclk_enable_usb>:
80003014:	d4 01       	pushm	lr
80003016:	30 1c       	mov	r12,1
80003018:	cd af       	rcall	80002fcc <sysclk_enable_pbb_module>
8000301a:	30 3b       	mov	r11,3
8000301c:	30 1c       	mov	r12,1
8000301e:	cc 1f       	rcall	80002fa0 <sysclk_priv_enable_module>
80003020:	e1 ba 00 00 	mfsr	r10,0x0

static inline irqflags_t cpu_irq_save(void)
{
	irqflags_t flags;

	flags = sysreg_read(AVR32_SR);
80003024:	d3 03       	ssrf	0x10
80003026:	fe 78 0c 00 	mov	r8,-62464
#ifdef BOARD_OSC0_HZ
	case OSC_ID_OSC0:
		oscctrl = OSC0_STARTUP_VALUE <<
				AVR32_PM_OSCCTRL0_STARTUP_OFFSET;
		oscctrl |= OSC0_MODE_VALUE << AVR32_PM_OSCCTRL0_MODE_OFFSET;
		AVR32_PM.oscctrl0 = oscctrl;
8000302a:	e0 69 03 07 	mov	r9,775
8000302e:	91 a9       	st.w	r8[0x28],r9
80003030:	70 09       	ld.w	r9,r8[0x0]
80003032:	a3 a9       	sbr	r9,0x2
		AVR32_PM.mcctrl |= 1U << AVR32_PM_MCCTRL_OSC0EN;
80003034:	91 09       	st.w	r8[0x0],r9
80003036:	e3 ba 00 00 	mtsr	0x0,r10
   // Don't work with sysreg_write(AVR32_SR, flags)
   if( cpu_irq_is_enabled_flags(flags) ) {
      cpu_irq_enable();
   }
#else
	sysreg_write(AVR32_SR, flags);
8000303a:	71 59       	ld.w	r9,r8[0x54]
8000303c:	ed b9 00 07 	bld	r9,0x7
80003040:	cf d1       	brne	8000303a <sysclk_enable_usb+0x26>
80003042:	30 49       	mov	r9,4
80003044:	fe 78 0c 00 	mov	r8,-62464
}

static inline void genclk_enable(const struct genclk_config *cfg,
		unsigned int id)
{
	AVR32_PM.gcctrl[id] = cfg->ctrl | (1U << AVR32_PM_GCCTRL_CEN);
80003048:	f1 49 00 70 	st.w	r8[112],r9
8000304c:	d8 02       	popm	pc
8000304e:	d7 03       	nop

80003050 <udi_cdc_data_disable>:
	UDI_CDC_DISABLE_EXT();
}

void udi_cdc_data_disable(void)
{
}
80003050:	5e fc       	retal	r12
		break;
	}

	genclk_config_set_divider(&gcfg, CONFIG_USBCLK_DIV);
	genclk_enable(&gcfg, AVR32_PM_GCLK_USBB);
}
80003052:	d7 03       	nop

80003054 <udi_cdc_comm_setup>:


bool udi_cdc_comm_setup(void)
{
	if (Udd_setup_is_in()) {
80003054:	49 98       	lddpc	r8,800030b8 <udi_cdc_comm_setup+0x64>
80003056:	30 0b       	mov	r11,0
80003058:	11 8a       	ld.ub	r10,r8[0x0]
8000305a:	14 99       	mov	r9,r10
8000305c:	e2 19 00 60 	andl	r9,0x60,COH
80003060:	f6 0a 18 00 	cp.b	r10,r11
80003064:	c1 04       	brge	80003084 <udi_cdc_comm_setup+0x30>
		// GET Interface Requests 
		if (Udd_setup_type() == USB_REQ_TYPE_CLASS) {
80003066:	e0 49 00 20 	cp.w	r9,32
8000306a:	c2 51       	brne	800030b4 <udi_cdc_comm_setup+0x60>
			// Requests Class Interface Get
			switch (udd_g_ctrlreq.req.bRequest) {
8000306c:	11 9a       	ld.ub	r10,r8[0x1]
8000306e:	32 19       	mov	r9,33
80003070:	f2 0a 18 00 	cp.b	r10,r9
80003074:	c2 01       	brne	800030b4 <udi_cdc_comm_setup+0x60>
			case USB_REQ_CDC_GET_LINE_CODING:
				// Get configuration of CDC line
				if (sizeof(usb_cdc_line_coding_t) !=
80003076:	90 39       	ld.sh	r9,r8[0x6]
80003078:	30 7a       	mov	r10,7
8000307a:	f4 09 19 00 	cp.h	r9,r10
8000307e:	c1 b1       	brne	800030b4 <udi_cdc_comm_setup+0x60>
						udd_g_ctrlreq.req.wLength)
					return false;	// Error for USB host
				udd_g_ctrlreq.payload =
						(uint8_t *) &
						udi_cdc_line_coding;
				udd_g_ctrlreq.payload_size =
80003080:	b0 69       	st.h	r8[0xc],r9
80003082:	c1 68       	rjmp	800030ae <udi_cdc_comm_setup+0x5a>
			}
		}
	}
	if (Udd_setup_is_out()) {
		// SET Interface Requests  
		if (Udd_setup_type() == USB_REQ_TYPE_CLASS) {
80003084:	e0 49 00 20 	cp.w	r9,32
80003088:	c1 61       	brne	800030b4 <udi_cdc_comm_setup+0x60>
			// Requests Class Interface Set
			switch (udd_g_ctrlreq.req.bRequest) {
8000308a:	11 9a       	ld.ub	r10,r8[0x1]
8000308c:	f2 0a 18 00 	cp.b	r10,r9
80003090:	c0 60       	breq	8000309c <udi_cdc_comm_setup+0x48>
80003092:	32 28       	mov	r8,34
80003094:	f0 0a 18 00 	cp.b	r10,r8
80003098:	c0 e1       	brne	800030b4 <udi_cdc_comm_setup+0x60>
8000309a:	c0 c8       	rjmp	800030b2 <udi_cdc_comm_setup+0x5e>
			case USB_REQ_CDC_SET_LINE_CODING:
				// Change configuration of CDC line
				if (sizeof(usb_cdc_line_coding_t) !=
8000309c:	90 39       	ld.sh	r9,r8[0x6]
8000309e:	30 7a       	mov	r10,7
800030a0:	f4 09 19 00 	cp.h	r9,r10
800030a4:	c0 81       	brne	800030b4 <udi_cdc_comm_setup+0x60>
				udd_g_ctrlreq.callback =
						udi_cdc_line_coding_received;
				udd_g_ctrlreq.payload =
						(uint8_t *) &
						udi_cdc_line_coding;
				udd_g_ctrlreq.payload_size =
800030a6:	b0 69       	st.h	r8[0xc],r9
			case USB_REQ_CDC_SET_LINE_CODING:
				// Change configuration of CDC line
				if (sizeof(usb_cdc_line_coding_t) !=
						udd_g_ctrlreq.req.wLength)
					return false;	// Error for USB host
				udd_g_ctrlreq.callback =
800030a8:	fe c9 ff e4 	sub	r9,pc,-28
						udi_cdc_line_coding_received;
				udd_g_ctrlreq.payload =
800030ac:	91 49       	st.w	r8[0x10],r9
800030ae:	48 49       	lddpc	r9,800030bc <udi_cdc_comm_setup+0x68>
						(uint8_t *) &
						udi_cdc_line_coding;
				udd_g_ctrlreq.payload_size =
800030b0:	91 29       	st.w	r8[0x8],r9
						sizeof(udi_cdc_line_coding);
				return true;
800030b2:	5e ff       	retal	1
800030b4:	5e fd       	retal	0
800030b6:	d7 03       	nop
800030b8:	00 00       	add	r0,r0
800030ba:	0c 98       	mov	r8,r6
800030bc:	00 00       	add	r0,r0
800030be:	07 28       	ld.uh	r8,r3++

800030c0 <udi_cdc_data_setup>:
}

bool udi_cdc_data_setup(void)
{
	return false;  // request Not supported
}
800030c0:	5e fd       	retal	0

800030c2 <udi_cdc_getsetting>:

uint8_t udi_cdc_getsetting(void)
{
	return 0;      // CDC don't have multiple alternate setting
}
800030c2:	5e fd       	retal	0

800030c4 <udi_cdc_line_coding_received>:

void udi_cdc_line_coding_received(void)
{
	// Send line coding to component associated to CDC
	UDI_CDC_SET_CODING_EXT((&udi_cdc_line_coding));
}
800030c4:	5e fc       	retal	r12
800030c6:	d7 03       	nop

800030c8 <udi_cdc_is_tx_ready>:


bool udi_cdc_is_tx_ready(void)
{
	irqflags_t flags;
	if (udi_cdc_tx_buf_nb[udi_cdc_tx_buf_sel]!=UDI_CDC_TX_BUFFERS) {
800030c8:	49 59       	lddpc	r9,8000311c <udi_cdc_is_tx_ready+0x54>
800030ca:	49 68       	lddpc	r8,80003120 <udi_cdc_is_tx_ready+0x58>
800030cc:	11 8a       	ld.ub	r10,r8[0x0]
800030ce:	f2 0a 04 1a 	ld.sh	r10,r9[r10<<0x1]
800030d2:	e0 69 01 40 	mov	r9,320
800030d6:	f2 0a 19 00 	cp.h	r10,r9
800030da:	c0 20       	breq	800030de <udi_cdc_is_tx_ready+0x16>
800030dc:	5e ff       	retal	1
		return true;
	}
	if (!udi_cdc_tx_both_buf_to_send) {
800030de:	49 29       	lddpc	r9,80003124 <udi_cdc_is_tx_ready+0x5c>
800030e0:	13 8a       	ld.ub	r10,r9[0x0]
800030e2:	58 0a       	cp.w	r10,0
800030e4:	c1 01       	brne	80003104 <udi_cdc_is_tx_ready+0x3c>

static inline irqflags_t cpu_irq_save(void)
{
	irqflags_t flags;

	flags = sysreg_read(AVR32_SR);
800030e6:	e1 ba 00 00 	mfsr	r10,0x0
	cpu_irq_disable();
800030ea:	d3 03       	ssrf	0x10
		flags = cpu_irq_save();	// to protect udi_cdc_tx_buf_sel
		if (!udi_cdc_tx_trans_ongoing) {
800030ec:	48 fb       	lddpc	r11,80003128 <udi_cdc_is_tx_ready+0x60>
800030ee:	17 8b       	ld.ub	r11,r11[0x0]
800030f0:	58 0b       	cp.w	r11,0
800030f2:	c0 71       	brne	80003100 <udi_cdc_is_tx_ready+0x38>
			// No transfer on-going
			// then use the other buffer to store data
			udi_cdc_tx_both_buf_to_send = true;
800030f4:	30 1b       	mov	r11,1
800030f6:	b2 8b       	st.b	r9[0x0],r11
			udi_cdc_tx_buf_sel = (udi_cdc_tx_buf_sel==0)?1:0;
800030f8:	11 89       	ld.ub	r9,r8[0x0]
800030fa:	58 09       	cp.w	r9,0
800030fc:	5f 09       	sreq	r9
800030fe:	b0 89       	st.b	r8[0x0],r9
   // Don't work with sysreg_write(AVR32_SR, flags)
   if( cpu_irq_is_enabled_flags(flags) ) {
      cpu_irq_enable();
   }
#else
	sysreg_write(AVR32_SR, flags);
80003100:	e3 ba 00 00 	mtsr	0x0,r10
		}
	  	cpu_irq_restore(flags);
	}
	return (udi_cdc_tx_buf_nb[udi_cdc_tx_buf_sel]!=UDI_CDC_TX_BUFFERS);
80003104:	48 78       	lddpc	r8,80003120 <udi_cdc_is_tx_ready+0x58>
80003106:	11 89       	ld.ub	r9,r8[0x0]
80003108:	48 58       	lddpc	r8,8000311c <udi_cdc_is_tx_ready+0x54>
8000310a:	f0 09 04 19 	ld.sh	r9,r8[r9<<0x1]
8000310e:	e0 68 01 40 	mov	r8,320
80003112:	f0 09 19 00 	cp.h	r9,r8
80003116:	5f 1c       	srne	r12
}
80003118:	5e fc       	retal	r12
8000311a:	d7 03       	nop
8000311c:	00 00       	add	r0,r0
8000311e:	07 30       	ld.ub	r0,r3++
80003120:	00 00       	add	r0,r0
80003122:	07 2f       	ld.uh	pc,r3++
80003124:	00 00       	add	r0,r0
80003126:	0c 41       	or	r1,r6
80003128:	00 00       	add	r0,r0
8000312a:	09 be       	ld.ub	lr,r4[0x3]

8000312c <udi_cdc_putc>:


int udi_cdc_putc(int value)
{
8000312c:	d4 31       	pushm	r0-r7,lr
	irqflags_t flags;
	bool b_databit_9;
	uint8_t buf_sel;

	b_databit_9 = (9 == udi_cdc_line_coding.bDataBits);
8000312e:	49 68       	lddpc	r8,80003184 <udi_cdc_putc+0x58>
	return (udi_cdc_tx_buf_nb[udi_cdc_tx_buf_sel]!=UDI_CDC_TX_BUFFERS);
}


int udi_cdc_putc(int value)
{
80003130:	18 97       	mov	r7,r12
	irqflags_t flags;
	bool b_databit_9;
	uint8_t buf_sel;

	b_databit_9 = (9 == udi_cdc_line_coding.bDataBits);
80003132:	11 e9       	ld.ub	r9,r8[0x6]

udi_cdc_putc_process_one_byte:
	// Check avaliable space
	if (!udi_cdc_is_tx_ready()) {
		if (!udi_cdc_running) {
80003134:	49 52       	lddpc	r2,80003188 <udi_cdc_putc+0x5c>
{
	irqflags_t flags;
	bool b_databit_9;
	uint8_t buf_sel;

	b_databit_9 = (9 == udi_cdc_line_coding.bDataBits);
80003136:	30 98       	mov	r8,9
		goto udi_cdc_putc_process_one_byte;
	}

	// Write value
	flags = cpu_irq_save();
	buf_sel = udi_cdc_tx_buf_sel;
80003138:	49 53       	lddpc	r3,8000318c <udi_cdc_putc+0x60>
{
	irqflags_t flags;
	bool b_databit_9;
	uint8_t buf_sel;

	b_databit_9 = (9 == udi_cdc_line_coding.bDataBits);
8000313a:	f0 09 18 00 	cp.b	r9,r8
8000313e:	5f 05       	sreq	r5
	}

	// Write value
	flags = cpu_irq_save();
	buf_sel = udi_cdc_tx_buf_sel;
	udi_cdc_tx_buf[buf_sel][udi_cdc_tx_buf_nb[buf_sel]++] = value;
80003140:	49 46       	lddpc	r6,80003190 <udi_cdc_putc+0x64>
80003142:	49 54       	lddpc	r4,80003194 <udi_cdc_putc+0x68>

	b_databit_9 = (9 == udi_cdc_line_coding.bDataBits);

udi_cdc_putc_process_one_byte:
	// Check avaliable space
	if (!udi_cdc_is_tx_ready()) {
80003144:	cc 2f       	rcall	800030c8 <udi_cdc_is_tx_ready>
80003146:	c0 51       	brne	80003150 <udi_cdc_putc+0x24>
80003148:	05 8c       	ld.ub	r12,r2[0x0]
		if (!udi_cdc_running) {
8000314a:	58 0c       	cp.w	r12,0
8000314c:	cf c1       	brne	80003144 <udi_cdc_putc+0x18>
8000314e:	d8 32       	popm	r0-r7,pc
80003150:	e1 ba 00 00 	mfsr	r10,0x0

static inline irqflags_t cpu_irq_save(void)
{
	irqflags_t flags;

	flags = sysreg_read(AVR32_SR);
80003154:	d3 03       	ssrf	0x10
	cpu_irq_disable();
80003156:	07 88       	ld.ub	r8,r3[0x0]
		goto udi_cdc_putc_process_one_byte;
	}

	// Write value
	flags = cpu_irq_save();
	buf_sel = udi_cdc_tx_buf_sel;
80003158:	ec 08 04 19 	ld.sh	r9,r6[r8<<0x1]
	udi_cdc_tx_buf[buf_sel][udi_cdc_tx_buf_nb[buf_sel]++] = value;
8000315c:	f2 cb ff ff 	sub	r11,r9,-1
80003160:	5c 79       	castu.h	r9
80003162:	ec 08 0a 1b 	st.h	r6[r8<<0x1],r11
80003166:	f0 08 00 28 	add	r8,r8,r8<<0x2
8000316a:	a7 68       	lsl	r8,0x6
8000316c:	f0 09 00 09 	add	r9,r8,r9
80003170:	e8 09 0b 07 	st.b	r4[r9],r7
80003174:	e3 ba 00 00 	mtsr	0x0,r10
   // Don't work with sysreg_write(AVR32_SR, flags)
   if( cpu_irq_is_enabled_flags(flags) ) {
      cpu_irq_enable();
   }
#else
	sysreg_write(AVR32_SR, flags);
80003178:	58 05       	cp.w	r5,0
	cpu_irq_restore(flags);

	if (b_databit_9) {
8000317a:	c0 21       	brne	8000317e <udi_cdc_putc+0x52>
8000317c:	da 3a       	popm	r0-r7,pc,r12=1
8000317e:	a9 47       	asr	r7,0x8
		// Send MSB
		b_databit_9 = false;
		value = value >> 8;
80003180:	30 05       	mov	r5,0
80003182:	ce 1b       	rjmp	80003144 <udi_cdc_putc+0x18>
80003184:	00 00       	add	r0,r0
80003186:	07 28       	ld.uh	r8,r3++
80003188:	00 00       	add	r0,r0
8000318a:	09 bd       	ld.ub	sp,r4[0x3]
8000318c:	00 00       	add	r0,r0
8000318e:	07 2f       	ld.uh	pc,r3++
80003190:	00 00       	add	r0,r0
80003192:	07 30       	ld.ub	r0,r3++
80003194:	00 00       	add	r0,r0
80003196:	07 34       	ld.ub	r4,r3++

80003198 <udi_cdc_rx_start>:
80003198:	d4 21       	pushm	r4-r7,lr
8000319a:	e1 bb 00 00 	mfsr	r11,0x0
8000319e:	d3 03       	ssrf	0x10
{
	irqflags_t flags;
	uint8_t buf_sel_trans;

	flags = cpu_irq_save();
	buf_sel_trans = udi_cdc_rx_buf_sel;
800031a0:	49 59       	lddpc	r9,800031f4 <udi_cdc_rx_start+0x5c>
800031a2:	13 88       	ld.ub	r8,r9[0x0]
	if (udi_cdc_rx_trans_ongoing ||
800031a4:	49 5c       	lddpc	r12,800031f8 <udi_cdc_rx_start+0x60>
800031a6:	19 8e       	ld.ub	lr,r12[0x0]
800031a8:	58 0e       	cp.w	lr,0
800031aa:	c0 a1       	brne	800031be <udi_cdc_rx_start+0x26>
		(udi_cdc_rx_pos < udi_cdc_rx_buf_nb[buf_sel_trans])) {
800031ac:	49 4a       	lddpc	r10,800031fc <udi_cdc_rx_start+0x64>
800031ae:	49 56       	lddpc	r6,80003200 <udi_cdc_rx_start+0x68>
800031b0:	94 07       	ld.sh	r7,r10[0x0]
800031b2:	ec 08 04 16 	ld.sh	r6,r6[r8<<0x1]
800031b6:	ee 06 19 00 	cp.h	r6,r7
800031ba:	e0 88 00 05 	brls	800031c4 <udi_cdc_rx_start+0x2c>
800031be:	e3 bb 00 00 	mtsr	0x0,r11
#endif
	barrier();
800031c2:	d8 2a       	popm	r4-r7,pc,r12=0
		cpu_irq_restore(flags);
		return false;
	}

	// Change current buffer
	udi_cdc_rx_pos = 0;
800031c4:	b4 0e       	st.h	r10[0x0],lr
	udi_cdc_rx_buf_sel = (buf_sel_trans==0)?1:0;
800031c6:	58 08       	cp.w	r8,0
800031c8:	5f 0e       	sreq	lr
800031ca:	b2 8e       	st.b	r9[0x0],lr

	// Start transfer on RX
	udi_cdc_rx_trans_ongoing = true;
800031cc:	30 1e       	mov	lr,1
800031ce:	b8 8e       	st.b	r12[0x0],lr
   // Don't work with sysreg_write(AVR32_SR, flags)
   if( cpu_irq_is_enabled_flags(flags) ) {
      cpu_irq_enable();
   }
#else
	sysreg_write(AVR32_SR, flags);
800031d0:	e3 bb 00 00 	mtsr	0x0,r11
}


bool udi_cdc_is_rx_ready(void)
{
	return (udi_cdc_rx_pos < udi_cdc_rx_buf_nb[udi_cdc_rx_buf_sel]);
800031d4:	94 0a       	ld.sh	r10,r10[0x0]
	
	if (udi_cdc_is_rx_ready()) {
		UDI_CDC_RX_NOTIFY();
	}

	return udd_ep_run( UDI_CDC_DATA_EP_OUT,
800031d6:	f0 08 00 28 	add	r8,r8,r8<<0x2
}


bool udi_cdc_is_rx_ready(void)
{
	return (udi_cdc_rx_pos < udi_cdc_rx_buf_nb[udi_cdc_rx_buf_sel]);
800031da:	13 89       	ld.ub	r9,r9[0x0]
	
	if (udi_cdc_is_rx_ready()) {
		UDI_CDC_RX_NOTIFY();
	}

	return udd_ep_run( UDI_CDC_DATA_EP_OUT,
800031dc:	a7 68       	lsl	r8,0x6
800031de:	48 aa       	lddpc	r10,80003204 <udi_cdc_rx_start+0x6c>
800031e0:	e0 69 01 40 	mov	r9,320
800031e4:	10 0a       	add	r10,r8
800031e6:	30 1b       	mov	r11,1
800031e8:	fe c8 ff 68 	sub	r8,pc,-152
800031ec:	30 2c       	mov	r12,2
800031ee:	fe b0 f8 f7 	rcall	800023dc <udd_ep_run>
					true,
					udi_cdc_rx_buf[buf_sel_trans],
					UDI_CDC_RX_BUFFERS,
					udi_cdc_data_recevied);
}
800031f2:	d8 22       	popm	r4-r7,pc
800031f4:	00 00       	add	r0,r0
800031f6:	09 bc       	ld.ub	r12,r4[0x3]
800031f8:	00 00       	add	r0,r0
800031fa:	0c 40       	or	r0,r6
800031fc:	00 00       	add	r0,r0
800031fe:	09 b8       	ld.ub	r8,r4[0x3]
80003200:	00 00       	add	r0,r0
80003202:	09 b4       	ld.ub	r4,r4[0x3]
80003204:	00 00       	add	r0,r0
80003206:	09 c0       	ld.ub	r0,r4[0x4]

80003208 <udi_cdc_getc>:
80003208:	d4 31       	pushm	r0-r7,lr
8000320a:	49 88       	lddpc	r8,80003268 <udi_cdc_getc+0x60>
8000320c:	11 e9       	ld.ub	r9,r8[0x6]
8000320e:	30 98       	mov	r8,9

	b_databit_9 = (9 == udi_cdc_line_coding.bDataBits);

udi_cdc_getc_process_one_byte:
	// Check avaliable data
	while (udi_cdc_rx_pos >= udi_cdc_rx_buf_nb[udi_cdc_rx_buf_sel]) {
80003210:	49 77       	lddpc	r7,8000326c <udi_cdc_getc+0x64>
int udi_cdc_getc(void)
{
	int rx_data = 0;
	bool b_databit_9;

	b_databit_9 = (9 == udi_cdc_line_coding.bDataBits);
80003212:	f0 09 18 00 	cp.b	r9,r8
80003216:	5f 04       	sreq	r4
80003218:	30 08       	mov	r8,0

udi_cdc_getc_process_one_byte:
	// Check avaliable data
	while (udi_cdc_rx_pos >= udi_cdc_rx_buf_nb[udi_cdc_rx_buf_sel]) {
8000321a:	49 65       	lddpc	r5,80003270 <udi_cdc_getc+0x68>
8000321c:	49 61       	lddpc	r1,80003274 <udi_cdc_getc+0x6c>
		if (!udi_cdc_running) {
8000321e:	49 72       	lddpc	r2,80003278 <udi_cdc_getc+0x70>
		}
		goto udi_cdc_getc_process_one_byte;
	}

	// Read data
	rx_data |= udi_cdc_rx_buf[udi_cdc_rx_buf_sel][udi_cdc_rx_pos];
80003220:	49 73       	lddpc	r3,8000327c <udi_cdc_getc+0x74>
80003222:	c0 48       	rjmp	8000322a <udi_cdc_getc+0x22>
	b_databit_9 = (9 == udi_cdc_line_coding.bDataBits);

udi_cdc_getc_process_one_byte:
	// Check avaliable data
	while (udi_cdc_rx_pos >= udi_cdc_rx_buf_nb[udi_cdc_rx_buf_sel]) {
		if (!udi_cdc_running) {
80003224:	05 86       	ld.ub	r6,r2[0x0]
80003226:	58 06       	cp.w	r6,0
80003228:	c1 e0       	breq	80003264 <udi_cdc_getc+0x5c>

	b_databit_9 = (9 == udi_cdc_line_coding.bDataBits);

udi_cdc_getc_process_one_byte:
	// Check avaliable data
	while (udi_cdc_rx_pos >= udi_cdc_rx_buf_nb[udi_cdc_rx_buf_sel]) {
8000322a:	8e 09       	ld.sh	r9,r7[0x0]
8000322c:	0b 8a       	ld.ub	r10,r5[0x0]
8000322e:	e2 0a 04 1a 	ld.sh	r10,r1[r10<<0x1]
80003232:	f2 0a 19 00 	cp.h	r10,r9
80003236:	fe 98 ff f7 	brls	80003224 <udi_cdc_getc+0x1c>
		}
		goto udi_cdc_getc_process_one_byte;
	}

	// Read data
	rx_data |= udi_cdc_rx_buf[udi_cdc_rx_buf_sel][udi_cdc_rx_pos];
8000323a:	0b 89       	ld.ub	r9,r5[0x0]
8000323c:	8e 0a       	ld.sh	r10,r7[0x0]
8000323e:	f2 09 00 29 	add	r9,r9,r9<<0x2
80003242:	5c 7a       	castu.h	r10
80003244:	a7 69       	lsl	r9,0x6
80003246:	14 09       	add	r9,r10
80003248:	e6 09 07 06 	ld.ub	r6,r3[r9]
8000324c:	f1 e6 10 06 	or	r6,r8,r6
	udi_cdc_rx_pos++;
80003250:	8e 08       	ld.sh	r8,r7[0x0]
80003252:	2f f8       	sub	r8,-1
80003254:	ae 08       	st.h	r7[0x0],r8

	udi_cdc_rx_start();
80003256:	ca 1f       	rcall	80003198 <udi_cdc_rx_start>
80003258:	58 04       	cp.w	r4,0

	if (b_databit_9) {
8000325a:	c0 50       	breq	80003264 <udi_cdc_getc+0x5c>
8000325c:	ec 08 15 08 	lsl	r8,r6,0x8
		// Receive MSB
		b_databit_9 = false;
		rx_data = rx_data << 8;
80003260:	30 04       	mov	r4,0
80003262:	ce 4b       	rjmp	8000322a <udi_cdc_getc+0x22>
80003264:	0c 9c       	mov	r12,r6
		goto udi_cdc_getc_process_one_byte;
	}
	return rx_data;
}
80003266:	d8 32       	popm	r0-r7,pc
80003268:	00 00       	add	r0,r0
8000326a:	07 28       	ld.uh	r8,r3++
8000326c:	00 00       	add	r0,r0
8000326e:	09 b8       	ld.ub	r8,r4[0x3]
80003270:	00 00       	add	r0,r0
80003272:	09 bc       	ld.ub	r12,r4[0x3]
80003274:	00 00       	add	r0,r0
80003276:	09 b4       	ld.ub	r4,r4[0x3]
80003278:	00 00       	add	r0,r0
8000327a:	09 bd       	ld.ub	sp,r4[0x3]
8000327c:	00 00       	add	r0,r0
8000327e:	09 c0       	ld.ub	r0,r4[0x4]

80003280 <udi_cdc_data_recevied>:
80003280:	d4 01       	pushm	lr
80003282:	58 0c       	cp.w	r12,0
80003284:	c0 e1       	brne	800032a0 <udi_cdc_data_recevied+0x20>
80003286:	48 88       	lddpc	r8,800032a4 <udi_cdc_data_recevied+0x24>

	if (UDD_EP_TRANSFER_OK != status) {
		// Abort reception
		return;
	}
	buf_sel_trans = (udi_cdc_rx_buf_sel==0)?1:0;
80003288:	11 88       	ld.ub	r8,r8[0x0]
	udi_cdc_rx_buf_nb[buf_sel_trans] = n;
8000328a:	58 08       	cp.w	r8,0
8000328c:	f9 b8 00 02 	moveq	r8,2
80003290:	f9 b8 01 00 	movne	r8,0
80003294:	48 59       	lddpc	r9,800032a8 <udi_cdc_data_recevied+0x28>
80003296:	f2 08 0a 0b 	st.h	r9[r8],r11
	udi_cdc_rx_trans_ongoing = false;
8000329a:	48 58       	lddpc	r8,800032ac <udi_cdc_data_recevied+0x2c>
8000329c:	b0 8c       	st.b	r8[0x0],r12
	udi_cdc_rx_start();
8000329e:	c7 df       	rcall	80003198 <udi_cdc_rx_start>
800032a0:	d8 02       	popm	pc
800032a2:	d7 03       	nop
800032a4:	00 00       	add	r0,r0
800032a6:	09 bc       	ld.ub	r12,r4[0x3]
800032a8:	00 00       	add	r0,r0
800032aa:	09 b4       	ld.ub	r4,r4[0x3]
800032ac:	00 00       	add	r0,r0
800032ae:	0c 40       	or	r0,r6

800032b0 <udi_cdc_tx_send>:
800032b0:	d4 21       	pushm	r4-r7,lr
800032b2:	4a 98       	lddpc	r8,80003354 <udi_cdc_tx_send+0xa4>
{
	irqflags_t flags;
	uint8_t buf_sel_trans;
	bool b_short_packet;

	if (udi_cdc_tx_trans_ongoing) {
800032b4:	11 88       	ld.ub	r8,r8[0x0]
800032b6:	58 08       	cp.w	r8,0
800032b8:	c4 c1       	brne	80003350 <udi_cdc_tx_send+0xa0>
800032ba:	4a 86       	lddpc	r6,80003358 <udi_cdc_tx_send+0xa8>
		return; // Already on going or wait next SOF to send next data
	}
	if (udd_is_high_speed()) {
800032bc:	fe b0 f7 b5 	rcall	80002226 <udd_is_high_speed>
800032c0:	c0 80       	breq	800032d0 <udi_cdc_tx_send+0x20>
		if (udi_cdc_tx_sof_num == udd_get_micro_frame_number()) {
800032c2:	8c 07       	ld.sh	r7,r6[0x0]
800032c4:	fe b0 f7 cf 	rcall	80002262 <udd_get_micro_frame_number>
800032c8:	f8 07 19 00 	cp.h	r7,r12
800032cc:	c0 81       	brne	800032dc <udi_cdc_tx_send+0x2c>
800032ce:	d8 22       	popm	r4-r7,pc
			return; // Wait next SOF to send next data
		}
	}else{
		if (udi_cdc_tx_sof_num == udd_get_frame_number()) {
800032d0:	8c 07       	ld.sh	r7,r6[0x0]
800032d2:	fe b0 f7 c2 	rcall	80002256 <udd_get_frame_number>
800032d6:	f8 07 19 00 	cp.h	r7,r12
800032da:	c3 b0       	breq	80003350 <udi_cdc_tx_send+0xa0>

static inline irqflags_t cpu_irq_save(void)
{
	irqflags_t flags;

	flags = sysreg_read(AVR32_SR);
800032dc:	e1 b9 00 00 	mfsr	r9,0x0
	cpu_irq_disable();
800032e0:	d3 03       	ssrf	0x10
			return; // Wait next SOF to send next data
		}
	}

	flags = cpu_irq_save();	// to protect udi_cdc_tx_buf_sel
	buf_sel_trans = udi_cdc_tx_buf_sel;
800032e2:	49 f8       	lddpc	r8,8000335c <udi_cdc_tx_send+0xac>
800032e4:	11 87       	ld.ub	r7,r8[0x0]
	if (!udi_cdc_tx_both_buf_to_send) {
800032e6:	49 fa       	lddpc	r10,80003360 <udi_cdc_tx_send+0xb0>
800032e8:	15 8a       	ld.ub	r10,r10[0x0]
800032ea:	58 0a       	cp.w	r10,0
800032ec:	c0 51       	brne	800032f6 <udi_cdc_tx_send+0x46>
		// Send current Buffer
		// and switch the current buffer
		udi_cdc_tx_buf_sel = (buf_sel_trans==0)?1:0;
800032ee:	58 07       	cp.w	r7,0
800032f0:	5f 0a       	sreq	r10
800032f2:	b0 8a       	st.b	r8[0x0],r10
800032f4:	c0 38       	rjmp	800032fa <udi_cdc_tx_send+0x4a>
	}else{
		// Send the other Buffer
		// and no switch the current buffer
		buf_sel_trans = (buf_sel_trans==0)?1:0;
800032f6:	58 07       	cp.w	r7,0
800032f8:	5f 07       	sreq	r7
	}
	udi_cdc_tx_trans_ongoing = true;
800032fa:	30 1a       	mov	r10,1
800032fc:	49 68       	lddpc	r8,80003354 <udi_cdc_tx_send+0xa4>
800032fe:	b0 8a       	st.b	r8[0x0],r10
   // Don't work with sysreg_write(AVR32_SR, flags)
   if( cpu_irq_is_enabled_flags(flags) ) {
      cpu_irq_enable();
   }
#else
	sysreg_write(AVR32_SR, flags);
80003300:	e3 b9 00 00 	mtsr	0x0,r9
	cpu_irq_restore(flags);

	b_short_packet = (udi_cdc_tx_buf_nb[buf_sel_trans] != UDI_CDC_TX_BUFFERS);
80003304:	49 88       	lddpc	r8,80003364 <udi_cdc_tx_send+0xb4>
80003306:	f0 07 04 19 	ld.sh	r9,r8[r7<<0x1]
8000330a:	e0 68 01 40 	mov	r8,320
8000330e:	f0 09 19 00 	cp.h	r9,r8
80003312:	5f 15       	srne	r5
	if (b_short_packet) {
80003314:	58 05       	cp.w	r5,0
80003316:	c0 c0       	breq	8000332e <udi_cdc_tx_send+0x7e>
80003318:	49 06       	lddpc	r6,80003358 <udi_cdc_tx_send+0xa8>
		if (udd_is_high_speed()) {
8000331a:	fe b0 f7 86 	rcall	80002226 <udd_is_high_speed>
8000331e:	c0 40       	breq	80003326 <udi_cdc_tx_send+0x76>
			udi_cdc_tx_sof_num = udd_get_micro_frame_number();
80003320:	fe b0 f7 a1 	rcall	80002262 <udd_get_micro_frame_number>
80003324:	c0 38       	rjmp	8000332a <udi_cdc_tx_send+0x7a>
		}else{
			udi_cdc_tx_sof_num = udd_get_frame_number();
80003326:	fe b0 f7 98 	rcall	80002256 <udd_get_frame_number>
8000332a:	ac 0c       	st.h	r6[0x0],r12
8000332c:	c0 38       	rjmp	80003332 <udi_cdc_tx_send+0x82>
		}
	}else{
		udi_cdc_tx_sof_num = 0; // Force next transfer without wait SOF
8000332e:	48 b8       	lddpc	r8,80003358 <udi_cdc_tx_send+0xa8>
80003330:	b0 05       	st.h	r8[0x0],r5
	}

	// Send the buffer with enable of short packet
	udd_ep_run( UDI_CDC_DATA_EP_IN,
80003332:	48 d8       	lddpc	r8,80003364 <udi_cdc_tx_send+0xb4>
80003334:	48 da       	lddpc	r10,80003368 <udi_cdc_tx_send+0xb8>
80003336:	f0 07 05 19 	ld.uh	r9,r8[r7<<0x1]
8000333a:	0a 9b       	mov	r11,r5
8000333c:	ee 07 00 27 	add	r7,r7,r7<<0x2
80003340:	fe c8 ff d4 	sub	r8,pc,-44
80003344:	a7 67       	lsl	r7,0x6
80003346:	e0 6c 00 81 	mov	r12,129
8000334a:	0e 0a       	add	r10,r7
8000334c:	fe b0 f8 48 	rcall	800023dc <udd_ep_run>
80003350:	d8 22       	popm	r4-r7,pc
80003352:	d7 03       	nop
80003354:	00 00       	add	r0,r0
80003356:	09 be       	ld.ub	lr,r4[0x3]
80003358:	00 00       	add	r0,r0
8000335a:	09 ba       	ld.ub	r10,r4[0x3]
8000335c:	00 00       	add	r0,r0
8000335e:	07 2f       	ld.uh	pc,r3++
80003360:	00 00       	add	r0,r0
80003362:	0c 41       	or	r1,r6
80003364:	00 00       	add	r0,r0
80003366:	07 30       	ld.ub	r0,r3++
80003368:	00 00       	add	r0,r0
8000336a:	07 34       	ld.ub	r4,r3++

8000336c <udi_cdc_data_sent>:
8000336c:	d4 01       	pushm	lr
8000336e:	58 0c       	cp.w	r12,0
80003370:	c1 01       	brne	80003390 <udi_cdc_data_sent+0x24>
80003372:	48 9a       	lddpc	r10,80003394 <udi_cdc_data_sent+0x28>
80003374:	48 99       	lddpc	r9,80003398 <udi_cdc_data_sent+0x2c>
80003376:	13 89       	ld.ub	r9,r9[0x0]
80003378:	58 09       	cp.w	r9,0
8000337a:	f9 b9 00 02 	moveq	r9,2
{
	if (UDD_EP_TRANSFER_OK != status) {
		// Abort transfer
		return;
	}
	udi_cdc_tx_buf_nb[(udi_cdc_tx_buf_sel==0)?1:0] = 0;
8000337e:	f9 b9 01 00 	movne	r9,0
	udi_cdc_tx_both_buf_to_send = false;
80003382:	b4 8c       	st.b	r10[0x0],r12
{
	if (UDD_EP_TRANSFER_OK != status) {
		// Abort transfer
		return;
	}
	udi_cdc_tx_buf_nb[(udi_cdc_tx_buf_sel==0)?1:0] = 0;
80003384:	48 6a       	lddpc	r10,8000339c <udi_cdc_data_sent+0x30>
80003386:	f4 09 0a 0c 	st.h	r10[r9],r12
	udi_cdc_tx_both_buf_to_send = false;
	udi_cdc_tx_trans_ongoing = false;
8000338a:	48 69       	lddpc	r9,800033a0 <udi_cdc_data_sent+0x34>
8000338c:	b2 8c       	st.b	r9[0x0],r12
	udi_cdc_tx_send();
8000338e:	c9 1f       	rcall	800032b0 <udi_cdc_tx_send>
80003390:	d8 02       	popm	pc
80003392:	d7 03       	nop
80003394:	00 00       	add	r0,r0
80003396:	0c 41       	or	r1,r6
80003398:	00 00       	add	r0,r0
8000339a:	07 2f       	ld.uh	pc,r3++
8000339c:	00 00       	add	r0,r0
8000339e:	07 30       	ld.ub	r0,r3++
800033a0:	00 00       	add	r0,r0
800033a2:	09 be       	ld.ub	lr,r4[0x3]

800033a4 <udi_cdc_data_sof_notify>:
800033a4:	d4 01       	pushm	lr
800033a6:	c8 5f       	rcall	800032b0 <udi_cdc_tx_send>
	return 0;      // CDC don't have multiple alternate setting
}

void udi_cdc_data_sof_notify(void)
{
	udi_cdc_tx_send();
800033a8:	d8 02       	popm	pc
}
800033aa:	d7 03       	nop

800033ac <udi_cdc_data_enable>:
800033ac:	d4 21       	pushm	r4-r7,lr
800033ae:	48 e9       	lddpc	r9,800033e4 <udi_cdc_data_enable+0x38>
}

bool udi_cdc_data_enable(void)
{
	// Initialize TX management
	udi_cdc_tx_trans_ongoing = false;
800033b0:	30 08       	mov	r8,0
800033b2:	b2 88       	st.b	r9[0x0],r8
	udi_cdc_tx_both_buf_to_send = false;
800033b4:	48 d9       	lddpc	r9,800033e8 <udi_cdc_data_enable+0x3c>
800033b6:	b2 88       	st.b	r9[0x0],r8
	udi_cdc_tx_buf_sel = 0;
	udi_cdc_tx_buf_nb[0] = 0;
800033b8:	48 d9       	lddpc	r9,800033ec <udi_cdc_data_enable+0x40>
800033ba:	30 07       	mov	r7,0
	udi_cdc_tx_buf_nb[1] = 0;
800033bc:	b2 17       	st.h	r9[0x2],r7
{
	// Initialize TX management
	udi_cdc_tx_trans_ongoing = false;
	udi_cdc_tx_both_buf_to_send = false;
	udi_cdc_tx_buf_sel = 0;
	udi_cdc_tx_buf_nb[0] = 0;
800033be:	b2 07       	st.h	r9[0x0],r7
bool udi_cdc_data_enable(void)
{
	// Initialize TX management
	udi_cdc_tx_trans_ongoing = false;
	udi_cdc_tx_both_buf_to_send = false;
	udi_cdc_tx_buf_sel = 0;
800033c0:	48 c9       	lddpc	r9,800033f0 <udi_cdc_data_enable+0x44>
800033c2:	b2 88       	st.b	r9[0x0],r8
	udi_cdc_tx_buf_nb[0] = 0;
	udi_cdc_tx_buf_nb[1] = 0;
	udi_cdc_tx_sof_num = 0;
800033c4:	48 c8       	lddpc	r8,800033f4 <udi_cdc_data_enable+0x48>
800033c6:	b0 07       	st.h	r8[0x0],r7
	udi_cdc_tx_send();
800033c8:	c7 4f       	rcall	800032b0 <udi_cdc_tx_send>
800033ca:	48 c8       	lddpc	r8,800033f8 <udi_cdc_data_enable+0x4c>

	// Initialize RX management
	udi_cdc_rx_trans_ongoing = false;
800033cc:	b0 87       	st.b	r8[0x0],r7
800033ce:	48 c8       	lddpc	r8,800033fc <udi_cdc_data_enable+0x50>
	udi_cdc_rx_buf_sel = 0;
800033d0:	b0 87       	st.b	r8[0x0],r7
800033d2:	48 c8       	lddpc	r8,80003400 <udi_cdc_data_enable+0x54>
	udi_cdc_rx_buf_nb[0] = 0;
800033d4:	b0 07       	st.h	r8[0x0],r7
800033d6:	48 c8       	lddpc	r8,80003404 <udi_cdc_data_enable+0x58>
	udi_cdc_rx_pos = 0;
800033d8:	b0 07       	st.h	r8[0x0],r7
800033da:	cd fe       	rcall	80003198 <udi_cdc_rx_start>
	udi_cdc_running = udi_cdc_rx_start();
800033dc:	48 b8       	lddpc	r8,80003408 <udi_cdc_data_enable+0x5c>
800033de:	b0 8c       	st.b	r8[0x0],r12
800033e0:	11 8c       	ld.ub	r12,r8[0x0]
800033e2:	d8 22       	popm	r4-r7,pc
	return udi_cdc_running;
800033e4:	00 00       	add	r0,r0
}
800033e6:	09 be       	ld.ub	lr,r4[0x3]
800033e8:	00 00       	add	r0,r0
800033ea:	0c 41       	or	r1,r6
800033ec:	00 00       	add	r0,r0
800033ee:	07 30       	ld.ub	r0,r3++
800033f0:	00 00       	add	r0,r0
800033f2:	07 2f       	ld.uh	pc,r3++
800033f4:	00 00       	add	r0,r0
800033f6:	09 ba       	ld.ub	r10,r4[0x3]
800033f8:	00 00       	add	r0,r0
800033fa:	0c 40       	or	r0,r6
800033fc:	00 00       	add	r0,r0
800033fe:	09 bc       	ld.ub	r12,r4[0x3]
80003400:	00 00       	add	r0,r0
80003402:	09 b4       	ld.ub	r4,r4[0x3]
80003404:	00 00       	add	r0,r0
80003406:	09 b8       	ld.ub	r8,r4[0x3]
80003408:	00 00       	add	r0,r0
8000340a:	09 bd       	ld.ub	sp,r4[0x3]

8000340c <udi_cdc_comm_disable>:
8000340c:	d4 01       	pushm	lr
8000340e:	30 09       	mov	r9,0
80003410:	48 38       	lddpc	r8,8000341c <udi_cdc_comm_disable+0x10>
80003412:	b0 89       	st.b	r8[0x0],r9
80003414:	e0 a0 03 28 	rcall	80003a64 <stdio_usb_disable>

void udi_cdc_comm_disable(void)
{
	udi_cdc_running = false;
	UDI_CDC_DISABLE_EXT();
}
80003418:	d8 02       	popm	pc
8000341a:	d7 03       	nop
8000341c:	00 00       	add	r0,r0
8000341e:	09 bd       	ld.ub	sp,r4[0x3]

80003420 <udi_cdc_comm_enable>:
80003420:	d4 01       	pushm	lr
80003422:	48 b8       	lddpc	r8,8000344c <udi_cdc_comm_enable+0x2c>


bool udi_cdc_comm_enable(void)
{
	// Initialize control signal management
	udi_cdc_state = CPU_TO_LE16(0);
80003424:	30 09       	mov	r9,0
80003426:	48 ba       	lddpc	r10,80003450 <udi_cdc_comm_enable+0x30>
	uid_cdc_state_msg.value = CPU_TO_LE16(0);

	udi_cdc_line_coding.dwDTERate = CPU_TO_LE32(UDI_CDC_DEFAULT_RATE);
80003428:	b0 89       	st.b	r8[0x0],r9


bool udi_cdc_comm_enable(void)
{
	// Initialize control signal management
	udi_cdc_state = CPU_TO_LE16(0);
8000342a:	b4 09       	st.h	r10[0x0],r9
	uid_cdc_state_msg.value = CPU_TO_LE16(0);

	udi_cdc_line_coding.dwDTERate = CPU_TO_LE32(UDI_CDC_DEFAULT_RATE);
	udi_cdc_line_coding.bCharFormat = UDI_CDC_DEFAULT_STOPBITS;
	udi_cdc_line_coding.bParityType = UDI_CDC_DEFAULT_PARITY;
8000342c:	b0 d9       	st.b	r8[0x5],r9
	// Initialize control signal management
	udi_cdc_state = CPU_TO_LE16(0);
	uid_cdc_state_msg.value = CPU_TO_LE16(0);

	udi_cdc_line_coding.dwDTERate = CPU_TO_LE32(UDI_CDC_DEFAULT_RATE);
	udi_cdc_line_coding.bCharFormat = UDI_CDC_DEFAULT_STOPBITS;
8000342e:	b0 c9       	st.b	r8[0x4],r9

bool udi_cdc_comm_enable(void)
{
	// Initialize control signal management
	udi_cdc_state = CPU_TO_LE16(0);
	uid_cdc_state_msg.value = CPU_TO_LE16(0);
80003430:	48 9a       	lddpc	r10,80003454 <udi_cdc_comm_enable+0x34>
80003432:	b4 49       	st.h	r10[0x8],r9

	udi_cdc_line_coding.dwDTERate = CPU_TO_LE32(UDI_CDC_DEFAULT_RATE);
80003434:	30 09       	mov	r9,0
80003436:	b0 b9       	st.b	r8[0x3],r9
80003438:	3c 29       	mov	r9,-62
8000343a:	b0 99       	st.b	r8[0x1],r9
8000343c:	30 19       	mov	r9,1
8000343e:	b0 a9       	st.b	r8[0x2],r9
	udi_cdc_line_coding.bCharFormat = UDI_CDC_DEFAULT_STOPBITS;
	udi_cdc_line_coding.bParityType = UDI_CDC_DEFAULT_PARITY;
	udi_cdc_line_coding.bDataBits = UDI_CDC_DEFAULT_DATABITS;
80003440:	30 89       	mov	r9,8
80003442:	b0 e9       	st.b	r8[0x6],r9
	UDI_CDC_SET_CODING_EXT((&udi_cdc_line_coding));

	// Call application callback
	// to initialize memories or indicate that interface is enabled
	return UDI_CDC_ENABLE_EXT();
80003444:	e0 a0 03 08 	rcall	80003a54 <stdio_usb_enable>
}
80003448:	d8 02       	popm	pc
8000344a:	d7 03       	nop
8000344c:	00 00       	add	r0,r0
8000344e:	07 28       	ld.uh	r8,r3++
80003450:	00 00       	add	r0,r0
80003452:	0c 42       	or	r2,r6
80003454:	00 00       	add	r0,r0
80003456:	00 30       	cp.w	r0,r0

80003458 <udc_update_iface_desc>:
 * \param setting_num   Setting number of interface to find
 *
 * \return 1 if found or 0 if not found
 */
static bool udc_update_iface_desc(uint8_t iface_num, uint8_t setting_num)
{
80003458:	d4 01       	pushm	lr
	usb_conf_desc_t UDC_DESC_STORAGE *ptr_end_desc;

	if (0 == udc_num_configuration)
8000345a:	49 c8       	lddpc	r8,800034c8 <udc_update_iface_desc+0x70>
8000345c:	11 89       	ld.ub	r9,r8[0x0]
8000345e:	30 08       	mov	r8,0
80003460:	f0 09 18 00 	cp.b	r9,r8
80003464:	c3 10       	breq	800034c6 <udc_update_iface_desc+0x6e>
		return false;

	if (iface_num >= udc_ptr_conf->desc->bNumInterfaces)
80003466:	49 a8       	lddpc	r8,800034cc <udc_update_iface_desc+0x74>
80003468:	70 08       	ld.w	r8,r8[0x0]
8000346a:	70 08       	ld.w	r8,r8[0x0]
8000346c:	11 c9       	ld.ub	r9,r8[0x4]
8000346e:	f8 09 18 00 	cp.b	r9,r12
80003472:	e0 88 00 2a 	brls	800034c6 <udc_update_iface_desc+0x6e>
		return false;

	// Start at the beginning of configuration descriptor
	udc_ptr_iface = (UDC_DESC_STORAGE usb_iface_desc_t *)
80003476:	49 79       	lddpc	r9,800034d0 <udc_update_iface_desc+0x78>
80003478:	93 08       	st.w	r9[0x0],r8
 */
static usb_conf_desc_t UDC_DESC_STORAGE *udc_get_eof_conf(void)
{
	return (UDC_DESC_STORAGE usb_conf_desc_t *) ((uint8_t *)
			udc_ptr_conf->desc +
			le16_to_cpu(udc_ptr_conf->desc->wTotalLength));
8000347a:	11 aa       	ld.ub	r10,r8[0x2]
8000347c:	11 b9       	ld.ub	r9,r8[0x3]

	// Check the end of configuration descriptor
	ptr_end_desc = udc_get_eof_conf();
	while (ptr_end_desc >
			(UDC_DESC_STORAGE usb_conf_desc_t *) udc_ptr_iface) {
		if (USB_DT_INTERFACE == udc_ptr_iface->bDescriptorType) {
8000347e:	30 4e       	mov	lr,4
 *
 * \return address after the last byte of USB Configuration descriptor
 */
static usb_conf_desc_t UDC_DESC_STORAGE *udc_get_eof_conf(void)
{
	return (UDC_DESC_STORAGE usb_conf_desc_t *) ((uint8_t *)
80003480:	f3 ea 10 89 	or	r9,r9,r10<<0x8
80003484:	f2 0a 16 08 	lsr	r10,r9,0x8
80003488:	f5 e9 10 89 	or	r9,r10,r9<<0x8
8000348c:	5c 79       	castu.h	r9
8000348e:	f0 09 00 09 	add	r9,r8,r9
	udc_ptr_iface = (UDC_DESC_STORAGE usb_iface_desc_t *)
			udc_ptr_conf->desc;

	// Check the end of configuration descriptor
	ptr_end_desc = udc_get_eof_conf();
	while (ptr_end_desc >
80003492:	c1 38       	rjmp	800034b8 <udc_update_iface_desc+0x60>
			(UDC_DESC_STORAGE usb_conf_desc_t *) udc_ptr_iface) {
		if (USB_DT_INTERFACE == udc_ptr_iface->bDescriptorType) {
80003494:	11 9a       	ld.ub	r10,r8[0x1]
80003496:	fc 0a 18 00 	cp.b	r10,lr
8000349a:	c0 d1       	brne	800034b4 <udc_update_iface_desc+0x5c>
			// A interface descriptor is found
			// Check interface and alternate setting number
			if ((iface_num == udc_ptr_iface->bInterfaceNumber)
8000349c:	11 aa       	ld.ub	r10,r8[0x2]
8000349e:	f8 0a 18 00 	cp.b	r10,r12
800034a2:	c0 91       	brne	800034b4 <udc_update_iface_desc+0x5c>
					&& (setting_num ==
							udc_ptr_iface->
800034a4:	11 ba       	ld.ub	r10,r8[0x3]
800034a6:	f6 0a 18 00 	cp.b	r10,r11
800034aa:	c0 51       	brne	800034b4 <udc_update_iface_desc+0x5c>
800034ac:	48 99       	lddpc	r9,800034d0 <udc_update_iface_desc+0x78>
800034ae:	30 1c       	mov	r12,1
800034b0:	93 08       	st.w	r9[0x0],r8
800034b2:	d8 02       	popm	pc
							bAlternateSetting))
				return true;	// Interface found
		}
		// Go to next descriptor
		udc_ptr_iface = (UDC_DESC_STORAGE usb_iface_desc_t *) ((uint8_t
800034b4:	11 8a       	ld.ub	r10,r8[0x0]
800034b6:	14 08       	add	r8,r10
	udc_ptr_iface = (UDC_DESC_STORAGE usb_iface_desc_t *)
			udc_ptr_conf->desc;

	// Check the end of configuration descriptor
	ptr_end_desc = udc_get_eof_conf();
	while (ptr_end_desc >
800034b8:	10 39       	cp.w	r9,r8
800034ba:	fe 9b ff ed 	brhi	80003494 <udc_update_iface_desc+0x3c>
800034be:	48 59       	lddpc	r9,800034d0 <udc_update_iface_desc+0x78>
800034c0:	30 0c       	mov	r12,0
800034c2:	93 08       	st.w	r9[0x0],r8
800034c4:	d8 02       	popm	pc
800034c6:	d8 0a       	popm	pc,r12=0
800034c8:	00 00       	add	r0,r0
800034ca:	0c 50       	eor	r0,r6
800034cc:	00 00       	add	r0,r0
800034ce:	0c 48       	or	r8,r6
800034d0:	00 00       	add	r0,r0
800034d2:	0c 54       	eor	r4,r6

800034d4 <udc_sof_notify>:
			CPU_TO_LE16(USB_DEV_STATUS_BUS_POWERED);
#endif
}

void udc_sof_notify(void)
{
800034d4:	d4 21       	pushm	r4-r7,lr
	uint8_t iface_num;

	if (udc_num_configuration) {
800034d6:	48 e8       	lddpc	r8,8000350c <udc_sof_notify+0x38>
800034d8:	11 89       	ld.ub	r9,r8[0x0]
800034da:	30 08       	mov	r8,0
800034dc:	f0 09 18 00 	cp.b	r9,r8
800034e0:	c1 40       	breq	80003508 <udc_sof_notify+0x34>
800034e2:	30 07       	mov	r7,0
		for (iface_num = 0;
				iface_num < udc_ptr_conf->desc->bNumInterfaces;
800034e4:	48 b6       	lddpc	r6,80003510 <udc_sof_notify+0x3c>
800034e6:	c0 a8       	rjmp	800034fa <udc_sof_notify+0x26>
				iface_num++) {
			if (udc_ptr_conf->udi_apis[iface_num]->sof_notify != NULL) {
800034e8:	70 18       	ld.w	r8,r8[0x4]
800034ea:	f0 07 03 28 	ld.w	r8,r8[r7<<0x2]
800034ee:	70 48       	ld.w	r8,r8[0x10]
800034f0:	58 08       	cp.w	r8,0
800034f2:	c0 20       	breq	800034f6 <udc_sof_notify+0x22>
				udc_ptr_conf->udi_apis[iface_num]->sof_notify();
800034f4:	5d 18       	icall	r8
	uint8_t iface_num;

	if (udc_num_configuration) {
		for (iface_num = 0;
				iface_num < udc_ptr_conf->desc->bNumInterfaces;
				iface_num++) {
800034f6:	2f f7       	sub	r7,-1
800034f8:	5c 57       	castu.b	r7
{
	uint8_t iface_num;

	if (udc_num_configuration) {
		for (iface_num = 0;
				iface_num < udc_ptr_conf->desc->bNumInterfaces;
800034fa:	6c 08       	ld.w	r8,r6[0x0]
void udc_sof_notify(void)
{
	uint8_t iface_num;

	if (udc_num_configuration) {
		for (iface_num = 0;
800034fc:	70 09       	ld.w	r9,r8[0x0]
800034fe:	13 c9       	ld.ub	r9,r9[0x4]
80003500:	ee 09 18 00 	cp.b	r9,r7
80003504:	fe 9b ff f2 	brhi	800034e8 <udc_sof_notify+0x14>
80003508:	d8 22       	popm	r4-r7,pc
8000350a:	d7 03       	nop
8000350c:	00 00       	add	r0,r0
8000350e:	0c 50       	eor	r0,r6
80003510:	00 00       	add	r0,r0
80003512:	0c 48       	or	r8,r6

80003514 <udc_valid_address>:
/**
 * \brief Change the address of device
 * Callback called at the end of request set address
 */
static void udc_valid_address(void)
{
80003514:	d4 01       	pushm	lr
	udd_set_address(udd_g_ctrlreq.req.wValue & 0x7F);
80003516:	48 48       	lddpc	r8,80003524 <udc_valid_address+0x10>
80003518:	11 bc       	ld.ub	r12,r8[0x3]
8000351a:	f9 dc c0 07 	bfextu	r12,r12,0x0,0x7
8000351e:	fe b0 f6 85 	rcall	80002228 <udd_set_address>
}
80003522:	d8 02       	popm	pc
80003524:	00 00       	add	r0,r0
80003526:	0c 98       	mov	r8,r6

80003528 <udc_iface_enable>:
80003528:	d4 31       	pushm	r0-r7,lr
8000352a:	18 96       	mov	r6,r12
 * \return 1 if it is done or 0 if interface is not found
 */
static bool udc_iface_enable(uint8_t iface_num, uint8_t setting_num)
{
	// Select the interface descriptor
	if (!udc_update_iface_desc(iface_num, setting_num))
8000352c:	c9 6f       	rcall	80003458 <udc_update_iface_desc>
8000352e:	c3 c0       	breq	800035a6 <udc_iface_enable+0x7e>
80003530:	49 e8       	lddpc	r8,800035a8 <udc_iface_enable+0x80>

#if (0!=USB_DEVICE_MAX_EP)
	usb_ep_desc_t UDC_DESC_STORAGE *ep_desc;

	// Start at the beginning of the global interface descriptor
	ep_desc = (UDC_DESC_STORAGE usb_ep_desc_t *) udc_ptr_iface;
80003532:	49 f3       	lddpc	r3,800035ac <udc_iface_enable+0x84>
 */
static usb_conf_desc_t UDC_DESC_STORAGE *udc_get_eof_conf(void)
{
	return (UDC_DESC_STORAGE usb_conf_desc_t *) ((uint8_t *)
			udc_ptr_conf->desc +
			le16_to_cpu(udc_ptr_conf->desc->wTotalLength));
80003534:	70 07       	ld.w	r7,r8[0x0]

#if (0!=USB_DEVICE_MAX_EP)
	usb_ep_desc_t UDC_DESC_STORAGE *ep_desc;

	// Start at the beginning of the global interface descriptor
	ep_desc = (UDC_DESC_STORAGE usb_ep_desc_t *) udc_ptr_iface;
80003536:	30 44       	mov	r4,4
			desc->bLength);
	// Check the end of configuration descriptor
	while (ptr_eof_desc > desc) {
		// If new interface descriptor is found,
		// then it is the end of the current global interface descriptor
		if (USB_DT_INTERFACE == desc->bDescriptorType)
80003538:	30 55       	mov	r5,5
			break;	// End of global interface descriptor
		if (desc_id == desc->bDescriptorType)
8000353a:	66 0a       	ld.w	r10,r3[0x0]
 */
static usb_conf_desc_t UDC_DESC_STORAGE *udc_get_eof_conf(void)
{
	return (UDC_DESC_STORAGE usb_conf_desc_t *) ((uint8_t *)
			udc_ptr_conf->desc +
			le16_to_cpu(udc_ptr_conf->desc->wTotalLength));
8000353c:	74 08       	ld.w	r8,r10[0x0]
8000353e:	11 ac       	ld.ub	r12,r8[0x2]
80003540:	11 bb       	ld.ub	r11,r8[0x3]
80003542:	0f 89       	ld.ub	r9,r7[0x0]
{
	usb_conf_desc_t UDC_DESC_STORAGE *ptr_eof_desc;

	ptr_eof_desc = udc_get_eof_conf();
	// Go to next descriptor
	desc = (UDC_DESC_STORAGE usb_conf_desc_t *) ((uint8_t *) desc +
80003544:	f7 ec 10 8b 	or	r11,r11,r12<<0x8
 *
 * \return address after the last byte of USB Configuration descriptor
 */
static usb_conf_desc_t UDC_DESC_STORAGE *udc_get_eof_conf(void)
{
	return (UDC_DESC_STORAGE usb_conf_desc_t *) ((uint8_t *)
80003548:	ee 09 00 09 	add	r9,r7,r9
{
	usb_conf_desc_t UDC_DESC_STORAGE *ptr_eof_desc;

	ptr_eof_desc = udc_get_eof_conf();
	// Go to next descriptor
	desc = (UDC_DESC_STORAGE usb_conf_desc_t *) ((uint8_t *) desc +
8000354c:	f6 0c 16 08 	lsr	r12,r11,0x8
 *
 * \return address after the last byte of USB Configuration descriptor
 */
static usb_conf_desc_t UDC_DESC_STORAGE *udc_get_eof_conf(void)
{
	return (UDC_DESC_STORAGE usb_conf_desc_t *) ((uint8_t *)
80003550:	f9 eb 10 8b 	or	r11,r12,r11<<0x8
80003554:	5c 7b       	castu.h	r11
80003556:	16 08       	add	r8,r11
80003558:	c0 a8       	rjmp	8000356c <udc_iface_enable+0x44>
8000355a:	13 9c       	ld.ub	r12,r9[0x1]
			desc->bLength);
	// Check the end of configuration descriptor
	while (ptr_eof_desc > desc) {
		// If new interface descriptor is found,
		// then it is the end of the current global interface descriptor
		if (USB_DT_INTERFACE == desc->bDescriptorType)
8000355c:	e8 0c 18 00 	cp.b	r12,r4
80003560:	c0 90       	breq	80003572 <udc_iface_enable+0x4a>
80003562:	ea 0c 18 00 	cp.b	r12,r5
			break;	// End of global interface descriptor
		if (desc_id == desc->bDescriptorType)
80003566:	c0 70       	breq	80003574 <udc_iface_enable+0x4c>
80003568:	13 8b       	ld.ub	r11,r9[0x0]
			return desc;	// Specific descriptor found
		// Go to next descriptor
		desc = (UDC_DESC_STORAGE usb_conf_desc_t *) ((uint8_t *) desc +
8000356a:	16 09       	add	r9,r11
8000356c:	12 38       	cp.w	r8,r9
	ptr_eof_desc = udc_get_eof_conf();
	// Go to next descriptor
	desc = (UDC_DESC_STORAGE usb_conf_desc_t *) ((uint8_t *) desc +
			desc->bLength);
	// Check the end of configuration descriptor
	while (ptr_eof_desc > desc) {
8000356e:	fe 9b ff f6 	brhi	8000355a <udc_iface_enable+0x32>
80003572:	30 09       	mov	r9,0
80003574:	12 97       	mov	r7,r9

	// Start at the beginning of the global interface descriptor
	ep_desc = (UDC_DESC_STORAGE usb_ep_desc_t *) udc_ptr_iface;
	while (1) {
		// Search Endpoint descriptor included in the global interface descriptor
		ep_desc = (UDC_DESC_STORAGE usb_ep_desc_t *)
80003576:	58 09       	cp.w	r9,0
				udc_next_desc_in_iface((UDC_DESC_STORAGE
						usb_conf_desc_t *) ep_desc,
				USB_DT_ENDPOINT);
		if (NULL == ep_desc)
80003578:	c1 10       	breq	8000359a <udc_iface_enable+0x72>
8000357a:	13 ca       	ld.ub	r10,r9[0x4]
			break;
		// Alloc the endpoint used by the interface
		if (!udd_ep_alloc(ep_desc->bEndpointAddress,
						ep_desc->bmAttributes,
						le16_to_cpu
8000357c:	13 d8       	ld.ub	r8,r9[0x5]
8000357e:	13 ac       	ld.ub	r12,r9[0x2]
						usb_conf_desc_t *) ep_desc,
				USB_DT_ENDPOINT);
		if (NULL == ep_desc)
			break;
		// Alloc the endpoint used by the interface
		if (!udd_ep_alloc(ep_desc->bEndpointAddress,
80003580:	f1 ea 10 88 	or	r8,r8,r10<<0x8
80003584:	13 bb       	ld.ub	r11,r9[0x3]
80003586:	f0 09 16 08 	lsr	r9,r8,0x8
8000358a:	f3 e8 10 88 	or	r8,r9,r8<<0x8
8000358e:	f5 d8 c0 10 	bfextu	r10,r8,0x0,0x10
80003592:	fe b0 f8 93 	rcall	800026b8 <udd_ep_alloc>
80003596:	cd 21       	brne	8000353a <udc_iface_enable+0x12>
80003598:	c0 78       	rjmp	800035a6 <udc_iface_enable+0x7e>
8000359a:	74 18       	ld.w	r8,r10[0x4]
						(ep_desc->wMaxPacketSize)))
			return false;
	}
#endif
	// Enable the interface
	return udc_ptr_conf->udi_apis[iface_num]->enable();
8000359c:	f0 06 03 28 	ld.w	r8,r8[r6<<0x2]
800035a0:	70 0c       	ld.w	r12,r8[0x0]
800035a2:	5d 1c       	icall	r12
800035a4:	d8 32       	popm	r0-r7,pc
800035a6:	d8 3a       	popm	r0-r7,pc,r12=0
800035a8:	00 00       	add	r0,r0
800035aa:	0c 54       	eor	r4,r6
800035ac:	00 00       	add	r0,r0
800035ae:	0c 48       	or	r8,r6

800035b0 <udc_iface_disable>:
800035b0:	d4 31       	pushm	r0-r7,lr
800035b2:	30 0b       	mov	r11,0
800035b4:	18 95       	mov	r5,r12
800035b6:	c5 1f       	rcall	80003458 <udc_update_iface_desc>
800035b8:	c3 70       	breq	80003626 <udc_iface_disable+0x76>
800035ba:	49 c6       	lddpc	r6,80003628 <udc_iface_disable+0x78>
	// before call iface->getsetting()
	if (!udc_update_iface_desc(iface_num, 0))
		return false;

	// Select the interface with the current alternate setting
	udi_api = udc_ptr_conf->udi_apis[iface_num];
800035bc:	6c 08       	ld.w	r8,r6[0x0]
800035be:	70 18       	ld.w	r8,r8[0x4]
800035c0:	f0 05 03 27 	ld.w	r7,r8[r5<<0x2]
800035c4:	6e 3c       	ld.w	r12,r7[0xc]

#if (0!=USB_DEVICE_MAX_EP)
	if (!udc_update_iface_desc(iface_num, udi_api->getsetting()))
800035c6:	5d 1c       	icall	r12
800035c8:	18 9b       	mov	r11,r12
800035ca:	0a 9c       	mov	r12,r5
800035cc:	c4 6f       	rcall	80003458 <udc_update_iface_desc>
800035ce:	c2 c0       	breq	80003626 <udc_iface_disable+0x76>
800035d0:	49 78       	lddpc	r8,8000362c <udc_iface_disable+0x7c>
800035d2:	30 43       	mov	r3,4
		return false;

	// Start at the beginning of interface descriptor
	{
		usb_ep_desc_t UDC_DESC_STORAGE *ep_desc;
		ep_desc = (UDC_DESC_STORAGE usb_ep_desc_t *) udc_ptr_iface;
800035d4:	70 05       	ld.w	r5,r8[0x0]
			desc->bLength);
	// Check the end of configuration descriptor
	while (ptr_eof_desc > desc) {
		// If new interface descriptor is found,
		// then it is the end of the current global interface descriptor
		if (USB_DT_INTERFACE == desc->bDescriptorType)
800035d6:	30 54       	mov	r4,5
		return false;

	// Start at the beginning of interface descriptor
	{
		usb_ep_desc_t UDC_DESC_STORAGE *ep_desc;
		ep_desc = (UDC_DESC_STORAGE usb_ep_desc_t *) udc_ptr_iface;
800035d8:	6c 08       	ld.w	r8,r6[0x0]
	while (ptr_eof_desc > desc) {
		// If new interface descriptor is found,
		// then it is the end of the current global interface descriptor
		if (USB_DT_INTERFACE == desc->bDescriptorType)
			break;	// End of global interface descriptor
		if (desc_id == desc->bDescriptorType)
800035da:	70 09       	ld.w	r9,r8[0x0]
 */
static usb_conf_desc_t UDC_DESC_STORAGE *udc_get_eof_conf(void)
{
	return (UDC_DESC_STORAGE usb_conf_desc_t *) ((uint8_t *)
			udc_ptr_conf->desc +
			le16_to_cpu(udc_ptr_conf->desc->wTotalLength));
800035dc:	13 ab       	ld.ub	r11,r9[0x2]
800035de:	13 ba       	ld.ub	r10,r9[0x3]
800035e0:	0b 88       	ld.ub	r8,r5[0x0]
800035e2:	f5 eb 10 8a 	or	r10,r10,r11<<0x8
 *
 * \return address after the last byte of USB Configuration descriptor
 */
static usb_conf_desc_t UDC_DESC_STORAGE *udc_get_eof_conf(void)
{
	return (UDC_DESC_STORAGE usb_conf_desc_t *) ((uint8_t *)
800035e6:	ea 08 00 08 	add	r8,r5,r8
{
	usb_conf_desc_t UDC_DESC_STORAGE *ptr_eof_desc;

	ptr_eof_desc = udc_get_eof_conf();
	// Go to next descriptor
	desc = (UDC_DESC_STORAGE usb_conf_desc_t *) ((uint8_t *) desc +
800035ea:	f4 0b 16 08 	lsr	r11,r10,0x8
 *
 * \return address after the last byte of USB Configuration descriptor
 */
static usb_conf_desc_t UDC_DESC_STORAGE *udc_get_eof_conf(void)
{
	return (UDC_DESC_STORAGE usb_conf_desc_t *) ((uint8_t *)
800035ee:	f7 ea 10 8a 	or	r10,r11,r10<<0x8
800035f2:	5c 7a       	castu.h	r10
800035f4:	14 09       	add	r9,r10
800035f6:	c0 a8       	rjmp	8000360a <udc_iface_disable+0x5a>
800035f8:	11 9b       	ld.ub	r11,r8[0x1]
800035fa:	e6 0b 18 00 	cp.b	r11,r3
			desc->bLength);
	// Check the end of configuration descriptor
	while (ptr_eof_desc > desc) {
		// If new interface descriptor is found,
		// then it is the end of the current global interface descriptor
		if (USB_DT_INTERFACE == desc->bDescriptorType)
800035fe:	c0 90       	breq	80003610 <udc_iface_disable+0x60>
80003600:	e8 0b 18 00 	cp.b	r11,r4
			break;	// End of global interface descriptor
		if (desc_id == desc->bDescriptorType)
80003604:	c0 70       	breq	80003612 <udc_iface_disable+0x62>
80003606:	11 8a       	ld.ub	r10,r8[0x0]
80003608:	14 08       	add	r8,r10
			return desc;	// Specific descriptor found
		// Go to next descriptor
		desc = (UDC_DESC_STORAGE usb_conf_desc_t *) ((uint8_t *) desc +
8000360a:	10 39       	cp.w	r9,r8
8000360c:	fe 9b ff f6 	brhi	800035f8 <udc_iface_disable+0x48>
	ptr_eof_desc = udc_get_eof_conf();
	// Go to next descriptor
	desc = (UDC_DESC_STORAGE usb_conf_desc_t *) ((uint8_t *) desc +
			desc->bLength);
	// Check the end of configuration descriptor
	while (ptr_eof_desc > desc) {
80003610:	30 08       	mov	r8,0
80003612:	10 95       	mov	r5,r8
80003614:	58 08       	cp.w	r8,0
	{
		usb_ep_desc_t UDC_DESC_STORAGE *ep_desc;
		ep_desc = (UDC_DESC_STORAGE usb_ep_desc_t *) udc_ptr_iface;
		while (1) {
			// Search Endpoint descriptor included in global interface descriptor
			ep_desc = (UDC_DESC_STORAGE usb_ep_desc_t *)
80003616:	c0 50       	breq	80003620 <udc_iface_disable+0x70>
					udc_next_desc_in_iface((UDC_DESC_STORAGE
							usb_conf_desc_t *)
					ep_desc, USB_DT_ENDPOINT);
			if (NULL == ep_desc)
80003618:	11 ac       	ld.ub	r12,r8[0x2]
8000361a:	fe b0 f6 c5 	rcall	800023a4 <udd_ep_free>
				break;
			// Free the endpoint used by the interface
			udd_ep_free(ep_desc->bEndpointAddress);
8000361e:	cd db       	rjmp	800035d8 <udc_iface_disable+0x28>
80003620:	6e 18       	ld.w	r8,r7[0x4]
		}
80003622:	5d 18       	icall	r8
	}
#endif

	// Disable interface
	udi_api->disable();
80003624:	da 3a       	popm	r0-r7,pc,r12=1
80003626:	d8 3a       	popm	r0-r7,pc,r12=0
80003628:	00 00       	add	r0,r0
	return true;
8000362a:	0c 48       	or	r8,r6
8000362c:	00 00       	add	r0,r0
8000362e:	0c 54       	eor	r4,r6

80003630 <udc_reset>:
80003630:	d4 21       	pushm	r4-r7,lr
80003632:	48 f8       	lddpc	r8,8000366c <udc_reset+0x3c>
80003634:	11 89       	ld.ub	r9,r8[0x0]
80003636:	30 08       	mov	r8,0
80003638:	f0 09 18 00 	cp.b	r9,r8
 */
void udc_reset(void)
{
	uint8_t iface_num;

	if (udc_num_configuration) {
8000363c:	c0 f0       	breq	8000365a <udc_reset+0x2a>
8000363e:	30 07       	mov	r7,0
		for (iface_num = 0;
				iface_num < udc_ptr_conf->desc->bNumInterfaces;
80003640:	48 c6       	lddpc	r6,80003670 <udc_reset+0x40>
80003642:	c0 58       	rjmp	8000364c <udc_reset+0x1c>
				iface_num++) {
			udc_iface_disable(iface_num);
80003644:	0e 9c       	mov	r12,r7
80003646:	cb 5f       	rcall	800035b0 <udc_iface_disable>
80003648:	2f f7       	sub	r7,-1
	uint8_t iface_num;

	if (udc_num_configuration) {
		for (iface_num = 0;
				iface_num < udc_ptr_conf->desc->bNumInterfaces;
				iface_num++) {
8000364a:	5c 57       	castu.b	r7
8000364c:	6c 08       	ld.w	r8,r6[0x0]
{
	uint8_t iface_num;

	if (udc_num_configuration) {
		for (iface_num = 0;
				iface_num < udc_ptr_conf->desc->bNumInterfaces;
8000364e:	70 08       	ld.w	r8,r8[0x0]
80003650:	11 c8       	ld.ub	r8,r8[0x4]
80003652:	ee 08 18 00 	cp.b	r8,r7
80003656:	fe 9b ff f7 	brhi	80003644 <udc_reset+0x14>
8000365a:	30 09       	mov	r9,0
				iface_num++) {
			udc_iface_disable(iface_num);
		}
	}
	udc_num_configuration = 0;
8000365c:	48 48       	lddpc	r8,8000366c <udc_reset+0x3c>
8000365e:	b0 89       	st.b	r8[0x0],r9
80003660:	e0 69 01 00 	mov	r9,256
	if (0 != (CPU_TO_LE16(USB_DEV_STATUS_REMOTEWAKEUP) & udc_device_status)) {
		// Remote wakeup is enabled then disable it
		UDC_REMOTEWAKEUP_DISABLE();
	}
#endif
	udc_device_status =
80003664:	48 48       	lddpc	r8,80003674 <udc_reset+0x44>
80003666:	b0 09       	st.h	r8[0x0],r9
80003668:	d8 22       	popm	r4-r7,pc
#if (USB_DEVICE_ATTR & USB_CONFIG_ATTR_SELF_POWERED)
			CPU_TO_LE16(USB_DEV_STATUS_SELF_POWERED);
#else
			CPU_TO_LE16(USB_DEV_STATUS_BUS_POWERED);
#endif
}
8000366a:	d7 03       	nop
8000366c:	00 00       	add	r0,r0
8000366e:	0c 50       	eor	r0,r6
80003670:	00 00       	add	r0,r0
80003672:	0c 48       	or	r8,r6
80003674:	00 00       	add	r0,r0
80003676:	0c 4e       	or	lr,r6

80003678 <udc_process_setup>:
80003678:	d4 21       	pushm	r4-r7,lr
8000367a:	4c c8       	lddpc	r8,800037a8 <udc_process_setup+0x130>
 */
bool udc_process_setup(void)
{
	// By default no data (receive/send) and no callbacks registered
	udd_g_ctrlreq.payload_size = 0;
	udd_g_ctrlreq.callback = NULL;
8000367c:	30 0a       	mov	r10,0
 * \return true if the request is supported, else the request is stalled by UDD
 */
bool udc_process_setup(void)
{
	// By default no data (receive/send) and no callbacks registered
	udd_g_ctrlreq.payload_size = 0;
8000367e:	30 09       	mov	r9,0
	udd_g_ctrlreq.callback = NULL;
	udd_g_ctrlreq.over_under_run = NULL;
80003680:	91 5a       	st.w	r8[0x14],r10
 * \return true if the request is supported, else the request is stalled by UDD
 */
bool udc_process_setup(void)
{
	// By default no data (receive/send) and no callbacks registered
	udd_g_ctrlreq.payload_size = 0;
80003682:	b0 69       	st.h	r8[0xc],r9
	udd_g_ctrlreq.callback = NULL;
80003684:	91 4a       	st.w	r8[0x10],r10
	udd_g_ctrlreq.over_under_run = NULL;

	if (Udd_setup_is_in()) {
80003686:	11 86       	ld.ub	r6,r8[0x0]
80003688:	f2 06 18 00 	cp.b	r6,r9
8000368c:	c0 64       	brge	80003698 <udc_process_setup+0x20>
		if (udd_g_ctrlreq.req.wLength == 0)
8000368e:	90 38       	ld.sh	r8,r8[0x6]
80003690:	f2 08 19 00 	cp.h	r8,r9
80003694:	e0 80 01 b3 	breq	800039fa <udc_process_setup+0x382>
			return false;	// Error from USB host
	}
	
	// If standard request then try to decode it in UDC
	if (Udd_setup_type() == USB_REQ_TYPE_STANDARD) {
80003698:	0c 9b       	mov	r11,r6
8000369a:	e2 1b 00 60 	andl	r11,0x60,COH
8000369e:	e0 81 01 87 	brne	800039ac <udc_process_setup+0x334>
 *
 * \return true if the request is supported
 */
static bool udc_reqstd(void)
{
	if (Udd_setup_is_in()) {
800036a2:	16 98       	mov	r8,r11
800036a4:	f6 06 18 00 	cp.b	r6,r11
800036a8:	e0 84 00 d9 	brge	8000385a <udc_process_setup+0x1e2>
		// GET Standard Requests 
		if (udd_g_ctrlreq.req.wLength == 0)
800036ac:	4b f7       	lddpc	r7,800037a8 <udc_process_setup+0x130>
800036ae:	8e 39       	ld.sh	r9,r7[0x6]
800036b0:	58 09       	cp.w	r9,0
800036b2:	e0 80 01 7d 	breq	800039ac <udc_process_setup+0x334>
			return false;	// Error for USB host

		if (USB_REQ_RECIP_DEVICE == Udd_setup_recipient()) {
800036b6:	ed d6 c0 05 	bfextu	r6,r6,0x0,0x5
800036ba:	e0 81 00 8d 	brne	800037d4 <udc_process_setup+0x15c>
			// Standard Get Device request
			switch (udd_g_ctrlreq.req.bRequest) {
800036be:	0f 9a       	ld.ub	r10,r7[0x1]
800036c0:	30 6b       	mov	r11,6
800036c2:	f6 0a 18 00 	cp.b	r10,r11
800036c6:	c1 10       	breq	800036e8 <udc_process_setup+0x70>
800036c8:	30 8b       	mov	r11,8
800036ca:	f6 0a 18 00 	cp.b	r10,r11
800036ce:	c7 b0       	breq	800037c4 <udc_process_setup+0x14c>
800036d0:	f0 0a 18 00 	cp.b	r10,r8
800036d4:	e0 81 01 6c 	brne	800039ac <udc_process_setup+0x334>
800036d8:	30 28       	mov	r8,2
 *
 * \return true if success
 */
static bool udc_req_std_dev_get_status(void)
{
	if (udd_g_ctrlreq.req.wLength != sizeof(udc_device_status))
800036da:	f0 09 19 00 	cp.h	r9,r8
800036de:	e0 81 01 67 	brne	800039ac <udc_process_setup+0x334>
800036e2:	30 2b       	mov	r11,2
		return false;

	udd_set_setup_payload(
800036e4:	4b 2c       	lddpc	r12,800037ac <udc_process_setup+0x134>
800036e6:	c9 f8       	rjmp	80003824 <udc_process_setup+0x1ac>
800036e8:	8e 1a       	ld.sh	r10,r7[0x2]
 */
static bool udc_req_std_dev_get_descriptor(void)
{
	uint8_t conf_num;

	conf_num = udd_g_ctrlreq.req.wValue & 0xff;
800036ea:	30 2b       	mov	r11,2

	// Check descriptor ID
	switch ((uint8_t) (udd_g_ctrlreq.req.wValue >> 8)) {
800036ec:	f1 da c0 10 	bfextu	r8,r10,0x0,0x10
800036f0:	f0 06 16 08 	lsr	r6,r8,0x8
800036f4:	f6 06 18 00 	cp.b	r6,r11
800036f8:	c0 f0       	breq	80003716 <udc_process_setup+0x9e>
800036fa:	30 3a       	mov	r10,3
800036fc:	f4 06 18 00 	cp.b	r6,r10
80003700:	c2 80       	breq	80003750 <udc_process_setup+0xd8>
80003702:	30 18       	mov	r8,1
80003704:	f0 06 18 00 	cp.b	r6,r8
80003708:	e0 81 01 52 	brne	800039ac <udc_process_setup+0x334>
8000370c:	4a 98       	lddpc	r8,800037b0 <udc_process_setup+0x138>
		} else
#endif
		{
			udd_set_setup_payload(
				(uint8_t *) udc_config.confdev_lsfs,
				udc_config.confdev_lsfs->bLength);
8000370e:	70 08       	ld.w	r8,r8[0x0]
80003710:	10 9c       	mov	r12,r8
				(uint8_t *) udc_config.confdev_hs,
				udc_config.confdev_hs->bLength);
		} else
#endif
		{
			udd_set_setup_payload(
80003712:	11 8b       	ld.ub	r11,r8[0x0]
80003714:	c3 f8       	rjmp	80003792 <udc_process_setup+0x11a>
80003716:	f1 da c0 08 	bfextu	r8,r10,0x0,0x8
 */
static bool udc_req_std_dev_get_descriptor(void)
{
	uint8_t conf_num;

	conf_num = udd_g_ctrlreq.req.wValue & 0xff;
8000371a:	4a 69       	lddpc	r9,800037b0 <udc_process_setup+0x138>
				le16_to_cpu(udc_config.conf_hs[conf_num].desc->wTotalLength));
		} else
#endif
		{
			// FS descriptor
			if (conf_num >= udc_config.confdev_lsfs->
8000371c:	72 0a       	ld.w	r10,r9[0x0]
8000371e:	f5 3a 00 11 	ld.ub	r10,r10[17]
80003722:	f0 0a 18 00 	cp.b	r10,r8
80003726:	e0 88 01 43 	brls	800039ac <udc_process_setup+0x334>
8000372a:	72 19       	ld.w	r9,r9[0x4]
					bNumConfigurations)
				return false;
			udd_set_setup_payload(
				(uint8_t *)udc_config.conf_lsfs[conf_num].desc,
				le16_to_cpu(udc_config.conf_lsfs[conf_num].desc->wTotalLength));
8000372c:	f2 08 03 38 	ld.w	r8,r9[r8<<0x3]
80003730:	11 a9       	ld.ub	r9,r8[0x2]
80003732:	10 9c       	mov	r12,r8
		{
			// FS descriptor
			if (conf_num >= udc_config.confdev_lsfs->
					bNumConfigurations)
				return false;
			udd_set_setup_payload(
80003734:	11 b8       	ld.ub	r8,r8[0x3]
				(uint8_t *)udc_config.conf_lsfs[conf_num].desc,
				le16_to_cpu(udc_config.conf_lsfs[conf_num].desc->wTotalLength));
80003736:	f1 e9 10 88 	or	r8,r8,r9<<0x8
		{
			// FS descriptor
			if (conf_num >= udc_config.confdev_lsfs->
					bNumConfigurations)
				return false;
			udd_set_setup_payload(
8000373a:	f0 09 16 08 	lsr	r9,r8,0x8
8000373e:	f3 e8 10 88 	or	r8,r9,r8<<0x8
80003742:	f7 d8 c0 10 	bfextu	r11,r8,0x0,0x10
80003746:	fe b0 f5 95 	rcall	80002270 <udd_set_setup_payload>
8000374a:	6e 28       	ld.w	r8,r7[0x8]
				(uint8_t *)udc_config.conf_lsfs[conf_num].desc,
				le16_to_cpu(udc_config.conf_lsfs[conf_num].desc->wTotalLength));
		}
		((usb_conf_desc_t *) udd_g_ctrlreq.payload)->bDescriptorType =
8000374c:	b0 96       	st.b	r8[0x1],r6
8000374e:	c2 48       	rjmp	80003796 <udc_process_setup+0x11e>
80003750:	f1 d8 c0 08 	bfextu	r8,r8,0x0,0x8
	uint8_t i;
	uint8_t *str;
	uint8_t str_lgt=0;

	// Link payload pointer to the string corresponding at request
	switch (udd_g_ctrlreq.req.wValue & 0xff) {
80003754:	58 18       	cp.w	r8,1
80003756:	c0 60       	breq	80003762 <udc_process_setup+0xea>
80003758:	58 28       	cp.w	r8,2
8000375a:	c0 a0       	breq	8000376e <udc_process_setup+0xf6>
8000375c:	58 08       	cp.w	r8,0
8000375e:	c0 50       	breq	80003768 <udc_process_setup+0xf0>
80003760:	c2 69       	rjmp	800039ac <udc_process_setup+0x334>
80003762:	30 98       	mov	r8,9
80003764:	49 4a       	lddpc	r10,800037b4 <udc_process_setup+0x13c>
80003766:	c0 68       	rjmp	80003772 <udc_process_setup+0xfa>
80003768:	30 4b       	mov	r11,4
	case 0:
		udd_set_setup_payload(
8000376a:	49 4c       	lddpc	r12,800037b8 <udc_process_setup+0x140>
8000376c:	c1 38       	rjmp	80003792 <udc_process_setup+0x11a>
8000376e:	30 38       	mov	r8,3
80003770:	49 3a       	lddpc	r10,800037bc <udc_process_setup+0x144>
80003772:	49 4b       	lddpc	r11,800037c0 <udc_process_setup+0x148>
80003774:	14 99       	mov	r9,r10
80003776:	2f eb       	sub	r11,-2
80003778:	13 3c       	ld.ub	r12,r9++
		return false;
	}

	if (str_lgt != 0) {
		for(i = 0; i < str_lgt; i++) {
			udc_string_desc.string[i] = cpu_to_le16((le16_t)str[i]);
8000377a:	a9 6c       	lsl	r12,0x8
8000377c:	16 bc       	st.h	r11++,r12
8000377e:	f2 0a 01 0c 	sub	r12,r9,r10
#endif
		return false;
	}

	if (str_lgt != 0) {
		for(i = 0; i < str_lgt; i++) {
80003782:	f0 0c 18 00 	cp.b	r12,r8
80003786:	cf 93       	brcs	80003778 <udc_process_setup+0x100>
80003788:	2f f8       	sub	r8,-1
			udc_string_desc.string[i] = cpu_to_le16((le16_t)str[i]);
		}
		
		udc_string_desc.header.bLength = 2 + (str_lgt) * 2;
8000378a:	48 ec       	lddpc	r12,800037c0 <udc_process_setup+0x148>
8000378c:	a1 78       	lsl	r8,0x1
8000378e:	10 9b       	mov	r11,r8
		udd_set_setup_payload(
80003790:	b8 88       	st.b	r12[0x0],r8
	if (str_lgt != 0) {
		for(i = 0; i < str_lgt; i++) {
			udc_string_desc.string[i] = cpu_to_le16((le16_t)str[i]);
		}
		
		udc_string_desc.header.bLength = 2 + (str_lgt) * 2;
80003792:	fe b0 f5 6f 	rcall	80002270 <udd_set_setup_payload>
		udd_set_setup_payload(
80003796:	48 58       	lddpc	r8,800037a8 <udc_process_setup+0x130>
	default:
		// Unknown descriptor requested
		return false;
	}
	// if the descriptor is larger than length requested, then reduce it
	if (udd_g_ctrlreq.req.wLength < udd_g_ctrlreq.payload_size)
80003798:	90 39       	ld.sh	r9,r8[0x6]
8000379a:	90 6a       	ld.sh	r10,r8[0xc]
8000379c:	f2 0a 19 00 	cp.h	r10,r9
800037a0:	e0 88 01 2e 	brls	800039fc <udc_process_setup+0x384>
800037a4:	b0 69       	st.h	r8[0xc],r9
		udd_g_ctrlreq.payload_size = udd_g_ctrlreq.req.wLength;
800037a6:	c2 b9       	rjmp	800039fc <udc_process_setup+0x384>
800037a8:	00 00       	add	r0,r0
800037aa:	0c 98       	mov	r8,r6
800037ac:	00 00       	add	r0,r0
800037ae:	0c 4e       	or	lr,r6
800037b0:	00 00       	add	r0,r0
800037b2:	00 90       	mov	r0,r0
800037b4:	00 00       	add	r0,r0
800037b6:	00 b0       	st.h	r0++,r0
800037b8:	00 00       	add	r0,r0
800037ba:	00 d0       	st.w	--r0,r0
800037bc:	00 00       	add	r0,r0
800037be:	00 ac       	st.w	r0++,r12
800037c0:	00 00       	add	r0,r0
800037c2:	00 bc       	st.h	r0++,r12
800037c4:	30 18       	mov	r8,1
800037c6:	f0 09 19 00 	cp.h	r9,r8
800037ca:	e0 81 00 f1 	brne	800039ac <udc_process_setup+0x334>
 *
 * \return true if success 
 */
static bool udc_req_std_dev_get_configuration(void)
{
	if (udd_g_ctrlreq.req.wLength != 1)
800037ce:	30 1b       	mov	r11,1
800037d0:	4c 8c       	lddpc	r12,800038f0 <udc_process_setup+0x278>
800037d2:	c2 98       	rjmp	80003824 <udc_process_setup+0x1ac>
800037d4:	58 16       	cp.w	r6,1
		return false;

	udd_set_setup_payload(&udc_num_configuration,1);
800037d6:	c2 a1       	brne	8000382a <udc_process_setup+0x1b2>
800037d8:	0f 9c       	ld.ub	r12,r7[0x1]
800037da:	30 aa       	mov	r10,10
			case USB_REQ_GET_CONFIGURATION:
				return udc_req_std_dev_get_configuration();
			}
		}

		if (USB_REQ_RECIP_INTERFACE == Udd_setup_recipient()) {
800037dc:	f4 0c 18 00 	cp.b	r12,r10
			// Standard Get Interface request
			switch (udd_g_ctrlreq.req.bRequest) {
800037e0:	e0 81 00 e6 	brne	800039ac <udc_process_setup+0x334>
800037e4:	ec 09 19 00 	cp.h	r9,r6
800037e8:	e0 81 00 e2 	brne	800039ac <udc_process_setup+0x334>
{
	static uint8_t udc_iface_setting;
	uint8_t iface_num;
	udi_api_t UDC_DESC_STORAGE *udi_api;

	if (udd_g_ctrlreq.req.wLength != 1)
800037ec:	4c 19       	lddpc	r9,800038f0 <udc_process_setup+0x278>
800037ee:	13 89       	ld.ub	r9,r9[0x0]
800037f0:	f6 09 18 00 	cp.b	r9,r11
		return false;	// Error in request
	if (!udc_num_configuration)
800037f4:	e0 80 00 dc 	breq	800039ac <udc_process_setup+0x334>
800037f8:	4b f8       	lddpc	r8,800038f4 <udc_process_setup+0x27c>
800037fa:	0f d7       	ld.ub	r7,r7[0x5]
800037fc:	70 06       	ld.w	r6,r8[0x0]
800037fe:	6c 08       	ld.w	r8,r6[0x0]
		return false;	// The device is not is configured state yet

	// Check the interface number included in the request
	iface_num = udd_g_ctrlreq.req.wIndex & 0xFF;
	if (iface_num >= udc_ptr_conf->desc->bNumInterfaces)
80003800:	11 c8       	ld.ub	r8,r8[0x4]
		return false;	// Error in request
	if (!udc_num_configuration)
		return false;	// The device is not is configured state yet

	// Check the interface number included in the request
	iface_num = udd_g_ctrlreq.req.wIndex & 0xFF;
80003802:	ee 08 18 00 	cp.b	r8,r7
	if (iface_num >= udc_ptr_conf->desc->bNumInterfaces)
80003806:	e0 88 00 d3 	brls	800039ac <udc_process_setup+0x334>
8000380a:	0e 9c       	mov	r12,r7
8000380c:	c2 6e       	rcall	80003458 <udc_update_iface_desc>
8000380e:	e0 80 00 cf 	breq	800039ac <udc_process_setup+0x334>
		return false;

	// Select first alternate setting of the interface to update udc_ptr_iface
	// before call iface->getsetting()
	if (!udc_update_iface_desc(iface_num, 0))
80003812:	6c 18       	ld.w	r8,r6[0x4]
80003814:	f0 07 03 28 	ld.w	r8,r8[r7<<0x2]
80003818:	70 3c       	ld.w	r12,r8[0xc]
8000381a:	5d 1c       	icall	r12
		return false;
	// Get alternate setting from UDI
	udi_api = udc_ptr_conf->udi_apis[iface_num];
	udc_iface_setting = udi_api->getsetting();
8000381c:	4b 78       	lddpc	r8,800038f8 <udc_process_setup+0x280>
8000381e:	30 1b       	mov	r11,1
80003820:	b0 8c       	st.b	r8[0x0],r12
80003822:	10 9c       	mov	r12,r8
80003824:	fe b0 f5 26 	rcall	80002270 <udd_set_setup_payload>
	// Link value to payload pointer of request
	udd_set_setup_payload(&udc_iface_setting,1);
80003828:	c3 48       	rjmp	80003890 <udc_process_setup+0x218>
	// before call iface->getsetting()
	if (!udc_update_iface_desc(iface_num, 0))
		return false;
	// Get alternate setting from UDI
	udi_api = udc_ptr_conf->udi_apis[iface_num];
	udc_iface_setting = udi_api->getsetting();
8000382a:	58 26       	cp.w	r6,2
	// Link value to payload pointer of request
	udd_set_setup_payload(&udc_iface_setting,1);
8000382c:	e0 81 00 c0 	brne	800039ac <udc_process_setup+0x334>
80003830:	0f 9a       	ld.ub	r10,r7[0x1]
80003832:	f6 0a 18 00 	cp.b	r10,r11
			case USB_REQ_GET_INTERFACE:
				return udc_req_std_iface_get_setting();
			}
		}
#if (0!=USB_DEVICE_MAX_EP)
		if (USB_REQ_RECIP_ENDPOINT == Udd_setup_recipient()) {
80003836:	e0 81 00 bb 	brne	800039ac <udc_process_setup+0x334>
			// Standard Get Endpoint request
			switch (udd_g_ctrlreq.req.bRequest) {
8000383a:	ec 09 19 00 	cp.h	r9,r6
8000383e:	e0 81 00 b7 	brne	800039ac <udc_process_setup+0x334>
80003842:	0f dc       	ld.ub	r12,r7[0x5]
 */
static bool udc_req_std_ep_get_status(void)
{
	static le16_t udc_ep_status;

	if (udd_g_ctrlreq.req.wLength != sizeof(udc_ep_status))
80003844:	fe b0 f5 1c 	rcall	8000227c <udd_ep_is_halted>
80003848:	4a d8       	lddpc	r8,800038fc <udc_process_setup+0x284>
8000384a:	e0 69 01 00 	mov	r9,256
		return false;

	udc_ep_status = udd_ep_is_halted(udd_g_ctrlreq.req.
8000384e:	0c 9b       	mov	r11,r6
80003850:	58 0c       	cp.w	r12,0
80003852:	f9 b9 00 00 	moveq	r9,0
80003856:	b0 09       	st.h	r8[0x0],r9
			wIndex & 0xFF) ? CPU_TO_LE16(USB_EP_STATUS_HALTED) : 0;

	udd_set_setup_payload(
80003858:	ce 5b       	rjmp	80003822 <udc_process_setup+0x1aa>
	static le16_t udc_ep_status;

	if (udd_g_ctrlreq.req.wLength != sizeof(udc_ep_status))
		return false;

	udc_ep_status = udd_ep_is_halted(udd_g_ctrlreq.req.
8000385a:	ef d6 c0 05 	bfextu	r7,r6,0x0,0x5
8000385e:	c6 51       	brne	80003928 <udc_process_setup+0x2b0>
80003860:	4a 86       	lddpc	r6,80003900 <udc_process_setup+0x288>
80003862:	30 59       	mov	r9,5
			}
		}
#endif
	} else {
		// SET Standard Requests  
		if (USB_REQ_RECIP_DEVICE == Udd_setup_recipient()) {
80003864:	0d 98       	ld.ub	r8,r6[0x1]
80003866:	f2 08 18 00 	cp.b	r8,r9
			// Standard Set Device request
			switch (udd_g_ctrlreq.req.bRequest) {
8000386a:	c0 b0       	breq	80003880 <udc_process_setup+0x208>
8000386c:	30 99       	mov	r9,9
8000386e:	f2 08 18 00 	cp.b	r8,r9
80003872:	c2 10       	breq	800038b4 <udc_process_setup+0x23c>
80003874:	30 19       	mov	r9,1
80003876:	f2 08 18 00 	cp.b	r8,r9
8000387a:	e0 81 00 99 	brne	800039ac <udc_process_setup+0x334>
8000387e:	c0 a8       	rjmp	80003892 <udc_process_setup+0x21a>
80003880:	8c 38       	ld.sh	r8,r6[0x6]
80003882:	ee 08 19 00 	cp.h	r8,r7
80003886:	e0 81 00 93 	brne	800039ac <udc_process_setup+0x334>
 *
 * \return true if success 
 */
static bool udc_req_std_dev_set_address(void)
{
	if (udd_g_ctrlreq.req.wLength != 0)
8000388a:	fe c8 03 76 	sub	r8,pc,886
8000388e:	8d 48       	st.w	r6[0x10],r8
80003890:	da 2a       	popm	r4-r7,pc,r12=1
80003892:	8c 38       	ld.sh	r8,r6[0x6]
		return false;

	// The address must be changed at the end of setup request after the handshake
	// then we use a callback to change address
	udd_g_ctrlreq.callback = udc_valid_address;
80003894:	ee 08 19 00 	cp.h	r8,r7
80003898:	e0 81 00 8a 	brne	800039ac <udc_process_setup+0x334>
 *
 * \return true if success 
 */
static bool udc_req_std_dev_clear_feature(void)
{
	if (udd_g_ctrlreq.req.wLength != 0)
8000389c:	8c 19       	ld.sh	r9,r6[0x2]
8000389e:	30 18       	mov	r8,1
800038a0:	f0 09 19 00 	cp.h	r9,r8
		return false;

	if (udd_g_ctrlreq.req.wValue == USB_DEV_FEATURE_REMOTE_WAKEUP) {
800038a4:	e0 81 00 84 	brne	800039ac <udc_process_setup+0x334>
800038a8:	49 79       	lddpc	r9,80003904 <udc_process_setup+0x28c>
800038aa:	30 1c       	mov	r12,1
800038ac:	92 08       	ld.sh	r8,r9[0x0]
800038ae:	a9 d8       	cbr	r8,0x9
		udc_device_status &= CPU_TO_LE16(~USB_DEV_STATUS_REMOTEWAKEUP);
800038b0:	b2 08       	st.h	r9[0x0],r8
800038b2:	d8 22       	popm	r4-r7,pc
800038b4:	8c 39       	ld.sh	r9,r6[0x6]
800038b6:	ee 09 19 00 	cp.h	r9,r7
800038ba:	c7 91       	brne	800039ac <udc_process_setup+0x334>
static bool udc_req_std_dev_set_configuration(void)
{
	uint8_t iface_num;

	// Check request length
	if (udd_g_ctrlreq.req.wLength != 0)
800038bc:	fe b0 f4 c7 	rcall	8000224a <udd_getaddress>
800038c0:	c7 60       	breq	800039ac <udc_process_setup+0x334>
800038c2:	49 25       	lddpc	r5,80003908 <udc_process_setup+0x290>
800038c4:	0d b9       	ld.ub	r9,r6[0x3]
		return false;
	// Authorize configuration only if the address is valid
	if (!udd_getaddress())
800038c6:	6a 08       	ld.w	r8,r5[0x0]
800038c8:	f1 38 00 11 	ld.ub	r8,r8[17]
800038cc:	10 39       	cp.w	r9,r8
			return false;
	} else
#endif
	{
		// FS descriptor
		if ((udd_g_ctrlreq.req.wValue & 0xFF) >
800038ce:	e0 89 00 6f 	brgt	800039ac <udc_process_setup+0x334>
800038d2:	ca fe       	rcall	80003630 <udc_reset>
800038d4:	0d b8       	ld.ub	r8,r6[0x3]
800038d6:	48 79       	lddpc	r9,800038f0 <udc_process_setup+0x278>
800038d8:	b2 88       	st.b	r9[0x0],r8
800038da:	58 08       	cp.w	r8,0
800038dc:	e0 80 00 90 	breq	800039fc <udc_process_setup+0x384>
				udc_config.confdev_lsfs->bNumConfigurations)
			return false;
	}

	// Reset current configuration
	udc_reset();
800038e0:	20 18       	sub	r8,1

	// Enable new configuration
	udc_num_configuration = udd_g_ctrlreq.req.wValue & 0xFF;
800038e2:	6a 19       	ld.w	r9,r5[0x4]
800038e4:	48 46       	lddpc	r6,800038f4 <udc_process_setup+0x27c>
800038e6:	f2 08 00 38 	add	r8,r9,r8<<0x3
	if (udc_num_configuration == 0) {
800038ea:	8d 08       	st.w	r6[0x0],r8
800038ec:	c1 68       	rjmp	80003918 <udc_process_setup+0x2a0>
		udc_ptr_conf = &udc_config.conf_hs[udc_num_configuration - 1];
	} else
#endif
	{
		// FS descriptor
		udc_ptr_conf = &udc_config.conf_lsfs[udc_num_configuration - 1];
800038ee:	d7 03       	nop
800038f0:	00 00       	add	r0,r0
800038f2:	0c 50       	eor	r0,r6
800038f4:	00 00       	add	r0,r0
800038f6:	0c 48       	or	r8,r6
800038f8:	00 00       	add	r0,r0
800038fa:	0c 4c       	or	r12,r6
800038fc:	00 00       	add	r0,r0
800038fe:	0c 44       	or	r4,r6
80003900:	00 00       	add	r0,r0
80003902:	0c 98       	mov	r8,r6
80003904:	00 00       	add	r0,r0
80003906:	0c 4e       	or	lr,r6
80003908:	00 00       	add	r0,r0
8000390a:	00 90       	mov	r0,r0
8000390c:	0e 9c       	mov	r12,r7
8000390e:	30 0b       	mov	r11,0
80003910:	c0 ce       	rcall	80003528 <udc_iface_enable>
80003912:	c4 d0       	breq	800039ac <udc_process_setup+0x334>
80003914:	2f f7       	sub	r7,-1
80003916:	5c 57       	castu.b	r7
80003918:	6c 08       	ld.w	r8,r6[0x0]
8000391a:	70 08       	ld.w	r8,r8[0x0]
8000391c:	11 c8       	ld.ub	r8,r8[0x4]
8000391e:	ee 08 18 00 	cp.b	r8,r7
80003922:	fe 9b ff f5 	brhi	8000390c <udc_process_setup+0x294>
80003926:	c6 b8       	rjmp	800039fc <udc_process_setup+0x384>
80003928:	58 17       	cp.w	r7,1
8000392a:	c1 b1       	brne	80003960 <udc_process_setup+0x2e8>
8000392c:	4b 59       	lddpc	r9,80003a00 <udc_process_setup+0x388>
8000392e:	30 ba       	mov	r10,11
	}
	// Enable all interfaces of the selected configuration
	for (iface_num = 0; iface_num < udc_ptr_conf->desc->bNumInterfaces;
			iface_num++) {
		if (!udc_iface_enable(iface_num, 0))
80003930:	13 9c       	ld.ub	r12,r9[0x1]
80003932:	f4 0c 18 00 	cp.b	r12,r10
80003936:	c3 b1       	brne	800039ac <udc_process_setup+0x334>
80003938:	92 3a       	ld.sh	r10,r9[0x6]
		// FS descriptor
		udc_ptr_conf = &udc_config.conf_lsfs[udc_num_configuration - 1];
	}
	// Enable all interfaces of the selected configuration
	for (iface_num = 0; iface_num < udc_ptr_conf->desc->bNumInterfaces;
			iface_num++) {
8000393a:	f6 0a 19 00 	cp.h	r10,r11
	{
		// FS descriptor
		udc_ptr_conf = &udc_config.conf_lsfs[udc_num_configuration - 1];
	}
	// Enable all interfaces of the selected configuration
	for (iface_num = 0; iface_num < udc_ptr_conf->desc->bNumInterfaces;
8000393e:	c3 71       	brne	800039ac <udc_process_setup+0x334>
80003940:	4b 1a       	lddpc	r10,80003a04 <udc_process_setup+0x38c>
80003942:	15 8a       	ld.ub	r10,r10[0x0]
80003944:	f6 0a 18 00 	cp.b	r10,r11
80003948:	c3 20       	breq	800039ac <udc_process_setup+0x334>
8000394a:	13 d7       	ld.ub	r7,r9[0x5]
8000394c:	92 16       	ld.sh	r6,r9[0x2]
				/* Not supported (defined as optional by the USB 2.0 spec) */
				break;
			}
		}

		if (USB_REQ_RECIP_INTERFACE == Udd_setup_recipient()) {
8000394e:	0e 9c       	mov	r12,r7
80003950:	c3 0e       	rcall	800035b0 <udc_iface_disable>
			// Standard Set Interface request
			switch (udd_g_ctrlreq.req.bRequest) {
80003952:	c2 d0       	breq	800039ac <udc_process_setup+0x334>
80003954:	f7 d6 c0 08 	bfextu	r11,r6,0x0,0x8
80003958:	0e 9c       	mov	r12,r7
8000395a:	fe b0 fd e7 	rcall	80003528 <udc_iface_enable>
 */
static bool udc_req_std_iface_set_setting(void)
{
	uint8_t iface_num, setting_num;

	if (udd_g_ctrlreq.req.wLength != 0)
8000395e:	c2 58       	rjmp	800039a8 <udc_process_setup+0x330>
80003960:	58 27       	cp.w	r7,2
80003962:	c2 51       	brne	800039ac <udc_process_setup+0x334>
80003964:	4a 78       	lddpc	r8,80003a00 <udc_process_setup+0x388>
		return false;	// Error in request
	if (!udc_num_configuration)
80003966:	30 1a       	mov	r10,1
80003968:	11 99       	ld.ub	r9,r8[0x1]
8000396a:	f4 09 18 00 	cp.b	r9,r10
8000396e:	c0 60       	breq	8000397a <udc_process_setup+0x302>

	iface_num = udd_g_ctrlreq.req.wIndex & 0xFF;
	setting_num = udd_g_ctrlreq.req.wValue & 0xFF;

	// Disable current setting
	if (!udc_iface_disable(iface_num))
80003970:	30 3a       	mov	r10,3
	if (!udc_num_configuration)
		return false;	// The device is not is configured state yet


	iface_num = udd_g_ctrlreq.req.wIndex & 0xFF;
	setting_num = udd_g_ctrlreq.req.wValue & 0xFF;
80003972:	f4 09 18 00 	cp.b	r9,r10

	// Disable current setting
	if (!udc_iface_disable(iface_num))
80003976:	c1 b1       	brne	800039ac <udc_process_setup+0x334>
80003978:	c0 d8       	rjmp	80003992 <udc_process_setup+0x31a>
8000397a:	90 39       	ld.sh	r9,r8[0x6]
		return false;

	// Enable new setting
	return udc_iface_enable(iface_num, setting_num);
8000397c:	f6 09 19 00 	cp.h	r9,r11
80003980:	c1 61       	brne	800039ac <udc_process_setup+0x334>
80003982:	90 1a       	ld.sh	r10,r8[0x2]
80003984:	f2 0a 19 00 	cp.h	r10,r9
			case USB_REQ_SET_INTERFACE:
				return udc_req_std_iface_set_setting();
			}
		}
#if (0!=USB_DEVICE_MAX_EP)
		if (USB_REQ_RECIP_ENDPOINT == Udd_setup_recipient()) {
80003988:	c1 21       	brne	800039ac <udc_process_setup+0x334>
8000398a:	11 dc       	ld.ub	r12,r8[0x5]
			// Standard Set Endpoint request
			switch (udd_g_ctrlreq.req.bRequest) {
8000398c:	fe b0 f4 c0 	rcall	8000230c <udd_ep_clear_halt>
80003990:	c0 c8       	rjmp	800039a8 <udc_process_setup+0x330>
80003992:	90 39       	ld.sh	r9,r8[0x6]
80003994:	f6 09 19 00 	cp.h	r9,r11
80003998:	c0 a1       	brne	800039ac <udc_process_setup+0x334>
8000399a:	90 1a       	ld.sh	r10,r8[0x2]
8000399c:	f2 0a 19 00 	cp.h	r10,r9
800039a0:	c0 61       	brne	800039ac <udc_process_setup+0x334>
 *
 * \return true if success 
 */
static bool udc_req_std_ep_clear_feature(void)
{
	if (udd_g_ctrlreq.req.wLength != 0)
800039a2:	11 dc       	ld.ub	r12,r8[0x5]
800039a4:	fe b0 f4 76 	rcall	80002290 <udd_ep_set_halt>
800039a8:	58 0c       	cp.w	r12,0
		return false;

	if (udd_g_ctrlreq.req.wValue == USB_EP_FEATURE_HALT) {
800039aa:	c2 91       	brne	800039fc <udc_process_setup+0x384>
800039ac:	49 58       	lddpc	r8,80003a00 <udc_process_setup+0x388>
800039ae:	11 89       	ld.ub	r9,r8[0x0]
800039b0:	f3 d9 c0 05 	bfextu	r9,r9,0x0,0x5
		return udd_ep_clear_halt(udd_g_ctrlreq.req.wIndex & 0xFF);
800039b4:	58 19       	cp.w	r9,1
800039b6:	c2 21       	brne	800039fa <udc_process_setup+0x382>
800039b8:	49 39       	lddpc	r9,80003a04 <udc_process_setup+0x38c>
 * \return true if success 
 */
#if (0!=USB_DEVICE_MAX_EP)
static bool udc_req_std_epset_feature(void)
{
	if (udd_g_ctrlreq.req.wLength != 0)
800039ba:	13 8a       	ld.ub	r10,r9[0x0]
800039bc:	30 09       	mov	r9,0
800039be:	f2 0a 18 00 	cp.b	r10,r9
		return false;
	if (udd_g_ctrlreq.req.wValue == USB_EP_FEATURE_HALT) {
800039c2:	c1 c0       	breq	800039fa <udc_process_setup+0x382>
800039c4:	11 d7       	ld.ub	r7,r8[0x5]
800039c6:	49 18       	lddpc	r8,80003a08 <udc_process_setup+0x390>
800039c8:	70 06       	ld.w	r6,r8[0x0]
		return udd_ep_set_halt(udd_g_ctrlreq.req.wIndex & 0xFF);
800039ca:	6c 08       	ld.w	r8,r6[0x0]
800039cc:	11 c8       	ld.ub	r8,r8[0x4]
800039ce:	ee 08 18 00 	cp.b	r8,r7
			return false;	// Error from USB host
	}
	
	// If standard request then try to decode it in UDC
	if (Udd_setup_type() == USB_REQ_TYPE_STANDARD) {
		if (udc_reqstd())
800039d2:	e0 88 00 14 	brls	800039fa <udc_process_setup+0x382>
			return true;
	}

	// If interface request then try to decode it in UDI
	if (Udd_setup_recipient() == USB_REQ_RECIP_INTERFACE) {
800039d6:	30 0b       	mov	r11,0
800039d8:	0e 9c       	mov	r12,r7
800039da:	fe b0 fd 3f 	rcall	80003458 <udc_update_iface_desc>
800039de:	c0 e0       	breq	800039fa <udc_process_setup+0x382>
static bool udc_req_iface(void)
{
	uint8_t iface_num;
	udi_api_t UDC_DESC_STORAGE *udi_api;

	if (0 == udc_num_configuration)
800039e0:	6c 18       	ld.w	r8,r6[0x4]
800039e2:	f0 07 03 26 	ld.w	r6,r8[r7<<0x2]
800039e6:	6c 3c       	ld.w	r12,r6[0xc]
800039e8:	5d 1c       	icall	r12
800039ea:	18 9b       	mov	r11,r12
		return false;	// The device is not is configured state yet
	// Check interface number
	iface_num = udd_g_ctrlreq.req.wIndex & 0xFF;
800039ec:	0e 9c       	mov	r12,r7
	if (iface_num >= udc_ptr_conf->desc->bNumInterfaces)
800039ee:	fe b0 fd 35 	rcall	80003458 <udc_update_iface_desc>
800039f2:	c0 40       	breq	800039fa <udc_process_setup+0x382>
800039f4:	6c 2c       	ld.w	r12,r6[0x8]
800039f6:	5d 1c       	icall	r12
800039f8:	d8 22       	popm	r4-r7,pc
800039fa:	d8 2a       	popm	r4-r7,pc,r12=0
800039fc:	da 2a       	popm	r4-r7,pc,r12=1
		return false;

	//* To update udc_ptr_iface with the selected interface in request
	// Select first alternate setting of interface to update udc_ptr_iface
	// before calling udi_api->getsetting()
	if (!udc_update_iface_desc(iface_num, 0))
800039fe:	d7 03       	nop
80003a00:	00 00       	add	r0,r0
80003a02:	0c 98       	mov	r8,r6
80003a04:	00 00       	add	r0,r0
80003a06:	0c 50       	eor	r0,r6
		return false;
	// Select the interface with the current alternate setting
	udi_api = udc_ptr_conf->udi_apis[iface_num];
80003a08:	00 00       	add	r0,r0
80003a0a:	0c 48       	or	r8,r6

80003a0c <_read>:
#elif (defined(__GNUC__) && !defined(XMEGA))


int __attribute__((weak))
_read (int file, char * ptr, int len)
{
80003a0c:	d4 31       	pushm	r0-r7,lr
80003a0e:	20 1d       	sub	sp,4
80003a10:	16 97       	mov	r7,r11
80003a12:	14 92       	mov	r2,r10
	int nChars = 0;

	if (file != 0)
80003a14:	58 0c       	cp.w	r12,0
80003a16:	c0 30       	breq	80003a1c <_read+0x10>
80003a18:	3f f6       	mov	r6,-1
80003a1a:	c1 58       	rjmp	80003a44 <_read+0x38>
80003a1c:	18 96       	mov	r6,r12
		return -1;

	for (; len > 0; --len) {
		int c;
		ptr_get(stdio_base,&c);
80003a1e:	48 c3       	lddpc	r3,80003a4c <_read+0x40>
80003a20:	48 c4       	lddpc	r4,80003a50 <_read+0x44>
80003a22:	1a 95       	mov	r5,sp
80003a24:	c0 b8       	rjmp	80003a3a <_read+0x2e>
80003a26:	68 08       	ld.w	r8,r4[0x0]
80003a28:	66 0c       	ld.w	r12,r3[0x0]
80003a2a:	1a 9b       	mov	r11,sp
80003a2c:	5d 18       	icall	r8
		if (c < 0)
80003a2e:	40 08       	lddsp	r8,sp[0x0]
80003a30:	58 08       	cp.w	r8,0
80003a32:	c0 95       	brlt	80003a44 <_read+0x38>
		break;
		*ptr++ = c;
80003a34:	ee 06 0b 08 	st.b	r7[r6],r8
		++nChars;
80003a38:	2f f6       	sub	r6,-1
// GCC AVR32 implementation
#elif (defined(__GNUC__) && !defined(XMEGA))


int __attribute__((weak))
_read (int file, char * ptr, int len)
80003a3a:	e4 06 01 08 	sub	r8,r2,r6
	int nChars = 0;

	if (file != 0)
		return -1;

	for (; len > 0; --len) {
80003a3e:	58 08       	cp.w	r8,0
80003a40:	fe 99 ff f3 	brgt	80003a26 <_read+0x1a>
		break;
		*ptr++ = c;
		++nChars;
	}
	return nChars;
}
80003a44:	0c 9c       	mov	r12,r6
80003a46:	2f fd       	sub	sp,-4
80003a48:	d8 32       	popm	r0-r7,pc
80003a4a:	d7 03       	nop
80003a4c:	00 00       	add	r0,r0
80003a4e:	0c c0       	st.b	r6++,r0
80003a50:	00 00       	add	r0,r0
80003a52:	0c b8       	st.h	r6++,r8

80003a54 <stdio_usb_enable>:
	}
}

bool stdio_usb_enable(void)
{
	stdio_usb_interface_enable = true;
80003a54:	30 19       	mov	r9,1
80003a56:	48 38       	lddpc	r8,80003a60 <stdio_usb_enable+0xc>
	return true;
}
80003a58:	30 1c       	mov	r12,1
	}
}

bool stdio_usb_enable(void)
{
	stdio_usb_interface_enable = true;
80003a5a:	b0 89       	st.b	r8[0x0],r9
	return true;
}
80003a5c:	5e fc       	retal	r12
80003a5e:	d7 03       	nop
80003a60:	00 00       	add	r0,r0
80003a62:	0c 58       	eor	r8,r6

80003a64 <stdio_usb_disable>:

void stdio_usb_disable(void)
{
	stdio_usb_interface_enable = false;
80003a64:	30 09       	mov	r9,0
80003a66:	48 28       	lddpc	r8,80003a6c <stdio_usb_disable+0x8>
80003a68:	b0 89       	st.b	r8[0x0],r9
}
80003a6a:	5e fc       	retal	r12
80003a6c:	00 00       	add	r0,r0
80003a6e:	0c 58       	eor	r8,r6

80003a70 <stdio_usb_vbus_event>:
	
	*data = udi_cdc_getc ();
}

void stdio_usb_vbus_event(bool b_high)
{
80003a70:	d4 01       	pushm	lr
	if (b_high) {
80003a72:	58 0c       	cp.w	r12,0
80003a74:	c0 40       	breq	80003a7c <stdio_usb_vbus_event+0xc>
 * then it will attach device when an acceptable Vbus
 * level from the host is detected.
 */
static inline void udc_attach(void)
{
	udd_attach();
80003a76:	fe b0 f6 e7 	rcall	80002844 <udd_attach>
80003a7a:	d8 02       	popm	pc
 *
 * The driver must remove pull-up on USB line D- or D+.
 */
static inline void udc_detach(void)
{
	udd_detach();
80003a7c:	fe b0 f5 6e 	rcall	80002558 <udd_detach>
80003a80:	d8 02       	popm	pc
80003a82:	d7 03       	nop

80003a84 <stdio_usb_init>:
80003a84:	d4 01       	pushm	lr
80003a86:	48 a8       	lddpc	r8,80003aac <stdio_usb_init+0x28>
80003a88:	fe c9 ff ac 	sub	r9,pc,-84
}

void stdio_usb_init (volatile void * usart)
{
	stdio_base = usart;
	ptr_put = stdio_usb_putchar;
80003a8c:	91 0c       	st.w	r8[0x0],r12
80003a8e:	48 98       	lddpc	r8,80003ab0 <stdio_usb_init+0x2c>
	ptr_get = stdio_usb_getchar;
80003a90:	91 09       	st.w	r8[0x0],r9
80003a92:	fe c9 ff da 	sub	r9,pc,-38

/*! \brief Start the USB Device stack
 */
static inline void udc_start(void)
{
	udd_enable();
80003a96:	48 88       	lddpc	r8,80003ab4 <stdio_usb_init+0x30>
80003a98:	91 09       	st.w	r8[0x0],r9
 *        udc_attach(); \n
 *     }  \n
 */
static inline bool udc_include_vbus_monitoring(void)
{
	return udd_include_vbus_monitoring();
80003a9a:	fe b0 f6 ff 	rcall	80002898 <udd_enable>
	 * integrated USB interfaces.  Assume the VBUS is present if
	 * VBUS monitoring is not available.
	 */
	udc_start ();

	if (! udc_include_vbus_monitoring ()) {
80003a9e:	fe b0 f3 c3 	rcall	80002224 <udd_include_vbus_monitoring>
		stdio_usb_vbus_event (true);
80003aa2:	c0 31       	brne	80003aa8 <stdio_usb_init+0x24>
80003aa4:	30 1c       	mov	r12,1
80003aa6:	ce 5f       	rcall	80003a70 <stdio_usb_vbus_event>
80003aa8:	d8 02       	popm	pc
80003aaa:	d7 03       	nop
80003aac:	00 00       	add	r0,r0
80003aae:	0c c0       	st.b	r6++,r0
80003ab0:	00 00       	add	r0,r0
80003ab2:	0c bc       	st.h	r6++,r12
80003ab4:	00 00       	add	r0,r0
80003ab6:	0c b8       	st.h	r6++,r8

80003ab8 <stdio_usb_getchar>:
80003ab8:	d4 21       	pushm	r4-r7,lr
80003aba:	48 88       	lddpc	r8,80003ad8 <stdio_usb_getchar+0x20>
80003abc:	16 97       	mov	r7,r11
80003abe:	11 89       	ld.ub	r9,r8[0x0]
80003ac0:	30 08       	mov	r8,0
80003ac2:	f0 09 18 00 	cp.b	r9,r8
80003ac6:	c0 41       	brne	80003ace <stdio_usb_getchar+0x16>
{
	/* A negative return value should be used to indicate that data
	 * was not read, but this doesn't seem to work with GCC libc.
	 */
	if (!stdio_usb_interface_enable) {
		*data = 0;  // -1
80003ac8:	30 08       	mov	r8,0
80003aca:	97 08       	st.w	r11[0x0],r8
		return;
80003acc:	d8 22       	popm	r4-r7,pc
	}
	
	*data = udi_cdc_getc ();
80003ace:	fe b0 fb 9d 	rcall	80003208 <udi_cdc_getc>
80003ad2:	8f 0c       	st.w	r7[0x0],r12
80003ad4:	d8 22       	popm	r4-r7,pc
80003ad6:	d7 03       	nop
80003ad8:	00 00       	add	r0,r0
80003ada:	0c 58       	eor	r8,r6

80003adc <stdio_usb_putchar>:
80003adc:	d4 01       	pushm	lr
80003ade:	48 78       	lddpc	r8,80003af8 <stdio_usb_putchar+0x1c>
int stdio_usb_putchar (volatile void * usart, int data)
{
	/* A negative return value should be used to indicate that data
	 * was not written, but this doesn't seem to work with GCC libc.
	 */
	if (!stdio_usb_interface_enable) {
80003ae0:	11 89       	ld.ub	r9,r8[0x0]
80003ae2:	30 08       	mov	r8,0
80003ae4:	f0 09 18 00 	cp.b	r9,r8
80003ae8:	c0 60       	breq	80003af4 <stdio_usb_putchar+0x18>
		return 0;  // -1
	}

	return udi_cdc_putc (data) ? 0 : -1;
80003aea:	16 9c       	mov	r12,r11
80003aec:	fe b0 fb 20 	rcall	8000312c <udi_cdc_putc>
80003af0:	c0 21       	brne	80003af4 <stdio_usb_putchar+0x18>
80003af2:	dc 0a       	popm	pc,r12=-1
80003af4:	d8 0a       	popm	pc,r12=0
80003af6:	d7 03       	nop
80003af8:	00 00       	add	r0,r0
80003afa:	0c 58       	eor	r8,r6

80003afc <_write>:

#elif (defined(__GNUC__) && !defined(XMEGA))

	int __attribute__((weak))
	_write (int file, char * ptr, int len)
	{
80003afc:	d4 31       	pushm	r0-r7,lr
80003afe:	16 97       	mov	r7,r11
80003b00:	14 93       	mov	r3,r10
		int nChars = 0;
	
		if ( (file != 1)
80003b02:	20 1c       	sub	r12,1
80003b04:	58 2c       	cp.w	r12,2
80003b06:	e0 8b 00 10 	brhi	80003b26 <_write+0x2a>
80003b0a:	30 06       	mov	r6,0
			&& (file != 2) && (file!=3))
		return -1;
	
		for (; len != 0; --len) {
			if (ptr_put(stdio_base, *ptr++) < 0) {
80003b0c:	48 84       	lddpc	r4,80003b2c <_write+0x30>
80003b0e:	48 95       	lddpc	r5,80003b30 <_write+0x34>
80003b10:	c0 88       	rjmp	80003b20 <_write+0x24>
80003b12:	ee 06 07 0b 	ld.ub	r11,r7[r6]
80003b16:	68 0c       	ld.w	r12,r4[0x0]
				return -1;
			}
			++nChars;
80003b18:	2f f6       	sub	r6,-1
		if ( (file != 1)
			&& (file != 2) && (file!=3))
		return -1;
	
		for (; len != 0; --len) {
			if (ptr_put(stdio_base, *ptr++) < 0) {
80003b1a:	6a 08       	ld.w	r8,r5[0x0]
80003b1c:	5d 18       	icall	r8
80003b1e:	c0 45       	brlt	80003b26 <_write+0x2a>
	
		if ( (file != 1)
			&& (file != 2) && (file!=3))
		return -1;
	
		for (; len != 0; --len) {
80003b20:	0c 33       	cp.w	r3,r6
80003b22:	cf 81       	brne	80003b12 <_write+0x16>
80003b24:	c0 28       	rjmp	80003b28 <_write+0x2c>
80003b26:	3f f6       	mov	r6,-1
				return -1;
			}
			++nChars;
		}
		return nChars;
	}
80003b28:	0c 9c       	mov	r12,r6
80003b2a:	d8 32       	popm	r0-r7,pc
80003b2c:	00 00       	add	r0,r0
80003b2e:	0c c0       	st.b	r6++,r0
80003b30:	00 00       	add	r0,r0
80003b32:	0c bc       	st.h	r6++,r12

80003b34 <busy_delay_init>:

//_____ D E C L A R A T I O N S ____________________________________________

void busy_delay_init(unsigned long fcpu_hz)
{
    s_fcpu_hz = fcpu_hz;
80003b34:	48 28       	lddpc	r8,80003b3c <busy_delay_init+0x8>
80003b36:	91 0c       	st.w	r8[0x0],r12
}
80003b38:	5e fc       	retal	r12
80003b3a:	d7 03       	nop
80003b3c:	00 00       	add	r0,r0
80003b3e:	0c 5c       	eor	r12,r6

80003b40 <busy_delay_us>:
{
    cpu_delay_ms(delay, s_fcpu_hz);
}

void busy_delay_us(unsigned long delay)
{
80003b40:	d4 01       	pushm	lr
#if (defined __GNUC__)
__attribute__((__always_inline__))
#endif
static inline uint32_t cpu_us_2_cy(unsigned long us, unsigned long fcpu_hz)
{
  return ((unsigned long long)us * fcpu_hz + 999999) / 1000000;
80003b42:	49 18       	lddpc	r8,80003b84 <busy_delay_us+0x44>
80003b44:	70 0b       	ld.w	r11,r8[0x0]
80003b46:	ee 78 42 3f 	mov	r8,999999
80003b4a:	f8 0b 06 4a 	mulu.d	r10,r12,r11
80003b4e:	30 09       	mov	r9,0
80003b50:	10 0a       	add	r10,r8
80003b52:	f6 09 00 4b 	adc	r11,r11,r9
80003b56:	ee 78 42 40 	mov	r8,1000000
80003b5a:	30 09       	mov	r9,0
80003b5c:	ce 2c       	rcall	80003d20 <__avr32_udiv64>
80003b5e:	e1 b8 00 42 	mfsr	r8,0x108
#if (defined __GNUC__)
__attribute__((__always_inline__))
#endif
static inline void cpu_set_timeout(unsigned long delay, t_cpu_time *cpu_time)
{
  cpu_time->delay_start_cycle = Get_system_register(AVR32_COUNT);
80003b62:	f0 0a 00 0a 	add	r10,r8,r10
  cpu_time->delay_end_cycle   = cpu_time->delay_start_cycle + delay;
80003b66:	e1 b9 00 42 	mfsr	r9,0x108
#if (defined __GNUC__)
__attribute__((__always_inline__))
#endif
static inline unsigned long cpu_is_timeout(t_cpu_time *cpu_time)
{
  unsigned long current_cycle_count = Get_system_register(AVR32_COUNT);
80003b6a:	14 38       	cp.w	r8,r10
  // Test if the timeout as already occured.
  else if (cpu_time->timer_state == CPU_TIMER_STATE_REACHED)
    return true;

  // If the ending cycle count of this timeout is wrapped, ...
  else if (cpu_time->delay_start_cycle > cpu_time->delay_end_cycle)
80003b6c:	e0 88 00 05 	brls	80003b76 <busy_delay_us+0x36>
80003b70:	10 39       	cp.w	r9,r8
  {
    if (current_cycle_count < cpu_time->delay_start_cycle && current_cycle_count > cpu_time->delay_end_cycle)
80003b72:	cf a2       	brcc	80003b66 <busy_delay_us+0x26>
80003b74:	c0 38       	rjmp	80003b7a <busy_delay_us+0x3a>
80003b76:	10 39       	cp.w	r9,r8
    }
    return false;
  }
  else
  {
    if (current_cycle_count < cpu_time->delay_start_cycle || current_cycle_count > cpu_time->delay_end_cycle)
80003b78:	c0 43       	brcs	80003b80 <busy_delay_us+0x40>
80003b7a:	14 39       	cp.w	r9,r10
80003b7c:	fe 98 ff f5 	brls	80003b66 <busy_delay_us+0x26>
80003b80:	d8 02       	popm	pc
80003b82:	d7 03       	nop
80003b84:	00 00       	add	r0,r0
80003b86:	0c 5c       	eor	r12,r6

80003b88 <busy_delay_ms>:
80003b88:	d4 01       	pushm	lr
80003b8a:	49 18       	lddpc	r8,80003bcc <busy_delay_ms+0x44>
#if (defined __GNUC__)
__attribute__((__always_inline__))
#endif
static inline uint32_t cpu_ms_2_cy(unsigned long ms, unsigned long fcpu_hz)
{
  return ((unsigned long long)ms * fcpu_hz + 999) / 1000;
80003b8c:	70 0b       	ld.w	r11,r8[0x0]
80003b8e:	e0 68 03 e7 	mov	r8,999
80003b92:	f8 0b 06 4a 	mulu.d	r10,r12,r11
80003b96:	30 09       	mov	r9,0
80003b98:	10 0a       	add	r10,r8
80003b9a:	f6 09 00 4b 	adc	r11,r11,r9
80003b9e:	e0 68 03 e8 	mov	r8,1000
80003ba2:	30 09       	mov	r9,0
80003ba4:	cb ec       	rcall	80003d20 <__avr32_udiv64>
80003ba6:	e1 b8 00 42 	mfsr	r8,0x108
#if (defined __GNUC__)
__attribute__((__always_inline__))
#endif
static inline void cpu_set_timeout(unsigned long delay, t_cpu_time *cpu_time)
{
  cpu_time->delay_start_cycle = Get_system_register(AVR32_COUNT);
80003baa:	f0 0a 00 0a 	add	r10,r8,r10
  cpu_time->delay_end_cycle   = cpu_time->delay_start_cycle + delay;
80003bae:	e1 b9 00 42 	mfsr	r9,0x108
#if (defined __GNUC__)
__attribute__((__always_inline__))
#endif
static inline unsigned long cpu_is_timeout(t_cpu_time *cpu_time)
{
  unsigned long current_cycle_count = Get_system_register(AVR32_COUNT);
80003bb2:	14 38       	cp.w	r8,r10
  // Test if the timeout as already occured.
  else if (cpu_time->timer_state == CPU_TIMER_STATE_REACHED)
    return true;

  // If the ending cycle count of this timeout is wrapped, ...
  else if (cpu_time->delay_start_cycle > cpu_time->delay_end_cycle)
80003bb4:	e0 88 00 05 	brls	80003bbe <busy_delay_ms+0x36>
80003bb8:	10 39       	cp.w	r9,r8
  {
    if (current_cycle_count < cpu_time->delay_start_cycle && current_cycle_count > cpu_time->delay_end_cycle)
80003bba:	cf a2       	brcc	80003bae <busy_delay_ms+0x26>
80003bbc:	c0 38       	rjmp	80003bc2 <busy_delay_ms+0x3a>
80003bbe:	10 39       	cp.w	r9,r8
    }
    return false;
  }
  else
  {
    if (current_cycle_count < cpu_time->delay_start_cycle || current_cycle_count > cpu_time->delay_end_cycle)
80003bc0:	c0 43       	brcs	80003bc8 <busy_delay_ms+0x40>
80003bc2:	14 39       	cp.w	r9,r10
80003bc4:	fe 98 ff f5 	brls	80003bae <busy_delay_ms+0x26>
80003bc8:	d8 02       	popm	pc
80003bca:	d7 03       	nop
80003bcc:	00 00       	add	r0,r0
80003bce:	0c 5c       	eor	r12,r6

80003bd0 <task_d_interrupts>:
	gpio_enable_pin_interrupt(TEST_C, GPIO_FALLING_EDGE);
}


void task_d_interrupts(void)
{
80003bd0:	d4 01       	pushm	lr
	if (gpio_get_pin_interrupt_flag(TEST_A))
80003bd2:	31 fc       	mov	r12,31
80003bd4:	fe b0 f2 bc 	rcall	8000214c <gpio_get_pin_interrupt_flag>
80003bd8:	c0 c0       	breq	80003bf0 <task_d_interrupts+0x20>
	{
		gpio_clear_pin_interrupt_flag(TEST_A);
80003bda:	31 fc       	mov	r12,31
80003bdc:	fe b0 f2 c4 	rcall	80002164 <gpio_clear_pin_interrupt_flag>
		gpio_set_pin_low(RESPONSE_A);
80003be0:	31 ec       	mov	r12,30
80003be2:	fe b0 f2 ab 	rcall	80002138 <gpio_set_pin_low>
		busy_delay_us(5);
80003be6:	30 5c       	mov	r12,5
80003be8:	ca cf       	rcall	80003b40 <busy_delay_us>
80003bea:	31 ec       	mov	r12,30
		gpio_set_pin_high(RESPONSE_A);
80003bec:	fe b0 f2 9c 	rcall	80002124 <gpio_set_pin_high>
80003bf0:	31 dc       	mov	r12,29
	}
	if (gpio_get_pin_interrupt_flag(TEST_B))
80003bf2:	fe b0 f2 ad 	rcall	8000214c <gpio_get_pin_interrupt_flag>
80003bf6:	c0 c0       	breq	80003c0e <task_d_interrupts+0x3e>
80003bf8:	31 dc       	mov	r12,29
	{
		gpio_clear_pin_interrupt_flag(TEST_B);
80003bfa:	fe b0 f2 b5 	rcall	80002164 <gpio_clear_pin_interrupt_flag>
80003bfe:	31 cc       	mov	r12,28
		gpio_set_pin_low(RESPONSE_B);
80003c00:	fe b0 f2 9c 	rcall	80002138 <gpio_set_pin_low>
80003c04:	36 4c       	mov	r12,100
		busy_delay_us(100);
80003c06:	c9 df       	rcall	80003b40 <busy_delay_us>
80003c08:	31 cc       	mov	r12,28
80003c0a:	fe b0 f2 8d 	rcall	80002124 <gpio_set_pin_high>
		gpio_set_pin_high(RESPONSE_B);
80003c0e:	31 bc       	mov	r12,27
80003c10:	fe b0 f2 9e 	rcall	8000214c <gpio_get_pin_interrupt_flag>
	}
	if (gpio_get_pin_interrupt_flag(TEST_C))
80003c14:	c0 c0       	breq	80003c2c <task_d_interrupts+0x5c>
80003c16:	31 bc       	mov	r12,27
80003c18:	fe b0 f2 a6 	rcall	80002164 <gpio_clear_pin_interrupt_flag>
	{
		gpio_clear_pin_interrupt_flag(TEST_C);
80003c1c:	32 0c       	mov	r12,32
80003c1e:	fe b0 f2 8d 	rcall	80002138 <gpio_set_pin_low>
		gpio_set_pin_low(RESPONSE_C);
80003c22:	30 5c       	mov	r12,5
80003c24:	c8 ef       	rcall	80003b40 <busy_delay_us>
		busy_delay_us(5);
80003c26:	32 0c       	mov	r12,32
80003c28:	fe b0 f2 7e 	rcall	80002124 <gpio_set_pin_high>
		gpio_set_pin_high(RESPONSE_C);
80003c2c:	d8 02       	popm	pc
80003c2e:	d7 03       	nop

80003c30 <interrupt_J3>:
80003c30:	d4 01       	pushm	lr
80003c32:	cc ff       	rcall	80003bd0 <task_d_interrupts>
80003c34:	d4 02       	popm	lr
80003c36:	d6 03       	rete

80003c38 <init>:
80003c38:	d4 21       	pushm	r4-r7,lr
80003c3a:	fe b0 f9 81 	rcall	80002f3c <sysclk_init>
80003c3e:	fe b0 f1 e3 	rcall	80002004 <board_init>
80003c42:	e0 6c 1b 00 	mov	r12,6912
80003c46:	ea 1c 00 b7 	orh	r12,0xb7

void init()
{
    sysclk_init();
    board_init();
    busy_delay_init(BOARD_OSC0_HZ);
80003c4a:	c7 5f       	rcall	80003b34 <busy_delay_init>
80003c4c:	d3 03       	ssrf	0x10
    
    cpu_irq_disable();
80003c4e:	fe b0 f2 ad 	rcall	800021a8 <INTC_init_interrupts>
    INTC_init_interrupts();
80003c52:	30 1a       	mov	r10,1
    INTC_register_interrupt(&interrupt_J3, AVR32_GPIO_IRQ_3, AVR32_INTC_INT1);
80003c54:	34 3b       	mov	r11,67
80003c56:	fe cc 00 26 	sub	r12,pc,38
80003c5a:	fe b0 f2 91 	rcall	8000217c <INTC_register_interrupt>
    cpu_irq_enable();
80003c5e:	d5 03       	csrf	0x10
    
    stdio_usb_init(&CONFIG_USART_IF);
80003c60:	fe 7c 1c 00 	mov	r12,-58368
80003c64:	c1 0f       	rcall	80003a84 <stdio_usb_init>
80003c66:	49 37       	lddpc	r7,80003cb0 <init+0x78>

    #if defined(__GNUC__) && defined(__AVR32__)
        setbuf(stdout, NULL);
80003c68:	6e 08       	ld.w	r8,r7[0x0]
80003c6a:	30 0b       	mov	r11,0
80003c6c:	70 1c       	ld.w	r12,r8[0x4]
80003c6e:	e0 a0 02 5f 	rcall	8000412c <setbuf>
80003c72:	6e 08       	ld.w	r8,r7[0x0]
        setbuf(stdin,  NULL);
80003c74:	30 0b       	mov	r11,0
80003c76:	70 0c       	ld.w	r12,r8[0x0]
80003c78:	e0 a0 02 5a 	rcall	8000412c <setbuf>
80003c7c:	30 2b       	mov	r11,2
    #endif
	
	
	
	
	gpio_configure_pin(TEST_A, GPIO_DIR_INPUT | GPIO_INIT_HIGH);
80003c7e:	31 fc       	mov	r12,31
80003c80:	fe b0 f1 e8 	rcall	80002050 <gpio_configure_pin>
80003c84:	30 3b       	mov	r11,3
	gpio_configure_pin(RESPONSE_A, GPIO_DIR_OUTPUT | GPIO_INIT_HIGH);
80003c86:	31 ec       	mov	r12,30
80003c88:	fe b0 f1 e4 	rcall	80002050 <gpio_configure_pin>
80003c8c:	30 2b       	mov	r11,2

	
	gpio_configure_pin(TEST_B, GPIO_DIR_INPUT | GPIO_INIT_HIGH);
80003c8e:	31 dc       	mov	r12,29
80003c90:	fe b0 f1 e0 	rcall	80002050 <gpio_configure_pin>
80003c94:	30 3b       	mov	r11,3
	gpio_configure_pin(RESPONSE_B, GPIO_DIR_OUTPUT | GPIO_INIT_HIGH);
80003c96:	31 cc       	mov	r12,28
80003c98:	fe b0 f1 dc 	rcall	80002050 <gpio_configure_pin>
80003c9c:	30 2b       	mov	r11,2
	
	
	gpio_configure_pin(TEST_C, GPIO_DIR_INPUT | GPIO_INIT_HIGH);
80003c9e:	31 bc       	mov	r12,27
80003ca0:	fe b0 f1 d8 	rcall	80002050 <gpio_configure_pin>
80003ca4:	30 3b       	mov	r11,3
	gpio_configure_pin(RESPONSE_C, GPIO_DIR_OUTPUT | GPIO_INIT_HIGH);
80003ca6:	32 0c       	mov	r12,32
80003ca8:	fe b0 f1 d4 	rcall	80002050 <gpio_configure_pin>
80003cac:	d8 22       	popm	r4-r7,pc
}
80003cae:	d7 03       	nop
80003cb0:	00 00       	add	r0,r0
80003cb2:	01 c4       	ld.ub	r4,r0[0x4]

80003cb4 <main>:
80003cb4:	d4 01       	pushm	lr
80003cb6:	cc 1f       	rcall	80003c38 <init>
80003cb8:	32 3c       	mov	r12,35
80003cba:	fe b0 f2 3f 	rcall	80002138 <gpio_set_pin_low>
80003cbe:	49 8c       	lddpc	r12,80003d1c <main+0x68>
80003cc0:	e0 a0 02 2e 	rcall	8000411c <puts>
80003cc4:	e0 6c 01 f4 	mov	r12,500
80003cc8:	c6 0f       	rcall	80003b88 <busy_delay_ms>
80003cca:	34 9c       	mov	r12,73
80003ccc:	fe b0 f2 36 	rcall	80002138 <gpio_set_pin_low>
80003cd0:	31 fc       	mov	r12,31
80003cd2:	fe b0 f2 1e 	rcall	8000210e <gpio_get_pin_value>
80003cd6:	c0 91       	brne	80003ce8 <main+0x34>
    while(1)
	{
		//task_c();
		//task_d();
	
		if(gpio_get_pin_value(TEST_A) == 0){
80003cd8:	31 ec       	mov	r12,30
80003cda:	fe b0 f2 2f 	rcall	80002138 <gpio_set_pin_low>
			
			gpio_set_pin_low(RESPONSE_A);
80003cde:	30 5c       	mov	r12,5
80003ce0:	c3 0f       	rcall	80003b40 <busy_delay_us>
			busy_delay_us(5);
80003ce2:	31 ec       	mov	r12,30
80003ce4:	fe b0 f2 20 	rcall	80002124 <gpio_set_pin_high>
			gpio_set_pin_high(RESPONSE_A);
80003ce8:	31 dc       	mov	r12,29
80003cea:	fe b0 f2 12 	rcall	8000210e <gpio_get_pin_value>
		}
		if(gpio_get_pin_value(TEST_B) == 0){
80003cee:	c0 91       	brne	80003d00 <main+0x4c>
80003cf0:	31 cc       	mov	r12,28
80003cf2:	fe b0 f2 23 	rcall	80002138 <gpio_set_pin_low>
			
			gpio_set_pin_low(RESPONSE_B);
80003cf6:	36 4c       	mov	r12,100
80003cf8:	c2 4f       	rcall	80003b40 <busy_delay_us>
80003cfa:	31 cc       	mov	r12,28
			busy_delay_us(100);
80003cfc:	fe b0 f2 14 	rcall	80002124 <gpio_set_pin_high>
80003d00:	31 bc       	mov	r12,27
			gpio_set_pin_high(RESPONSE_B);
80003d02:	fe b0 f2 06 	rcall	8000210e <gpio_get_pin_value>
80003d06:	ce 51       	brne	80003cd0 <main+0x1c>
		}
		if(gpio_get_pin_value(TEST_C) == 0){
80003d08:	32 0c       	mov	r12,32
80003d0a:	fe b0 f2 17 	rcall	80002138 <gpio_set_pin_low>
80003d0e:	30 5c       	mov	r12,5
			
			gpio_set_pin_low(RESPONSE_C);
80003d10:	c1 8f       	rcall	80003b40 <busy_delay_us>
80003d12:	32 0c       	mov	r12,32
80003d14:	fe b0 f2 08 	rcall	80002124 <gpio_set_pin_high>
			busy_delay_us(5);
80003d18:	cd cb       	rjmp	80003cd0 <main+0x1c>
80003d1a:	d7 03       	nop
			gpio_set_pin_high(RESPONSE_C);
80003d1c:	80 00       	ld.sh	r0,r0[0x0]
80003d1e:	58 f0       	cp.w	r0,15

80003d20 <__avr32_udiv64>:
80003d20:	d4 31       	pushm	r0-r7,lr
80003d22:	1a 97       	mov	r7,sp
80003d24:	20 3d       	sub	sp,12
80003d26:	10 9c       	mov	r12,r8
80003d28:	12 9e       	mov	lr,r9
80003d2a:	14 93       	mov	r3,r10
80003d2c:	58 09       	cp.w	r9,0
80003d2e:	e0 81 00 bd 	brne	80003ea8 <__avr32_udiv64+0x188>
80003d32:	16 38       	cp.w	r8,r11
80003d34:	e0 88 00 40 	brls	80003db4 <__avr32_udiv64+0x94>
80003d38:	f0 08 12 00 	clz	r8,r8
80003d3c:	c0 d0       	breq	80003d56 <__avr32_udiv64+0x36>
80003d3e:	f6 08 09 4b 	lsl	r11,r11,r8
80003d42:	f0 09 11 20 	rsub	r9,r8,32
80003d46:	f8 08 09 4c 	lsl	r12,r12,r8
80003d4a:	f4 09 0a 49 	lsr	r9,r10,r9
80003d4e:	f4 08 09 43 	lsl	r3,r10,r8
80003d52:	f3 eb 10 0b 	or	r11,r9,r11
80003d56:	f8 0e 16 10 	lsr	lr,r12,0x10
80003d5a:	f5 dc c0 10 	bfextu	r10,r12,0x0,0x10
80003d5e:	f6 0e 0d 00 	divu	r0,r11,lr
80003d62:	e6 0b 16 10 	lsr	r11,r3,0x10
80003d66:	00 99       	mov	r9,r0
80003d68:	f7 e1 11 0b 	or	r11,r11,r1<<0x10
80003d6c:	e0 0a 02 48 	mul	r8,r0,r10
80003d70:	10 3b       	cp.w	r11,r8
80003d72:	c0 a2       	brcc	80003d86 <__avr32_udiv64+0x66>
80003d74:	20 19       	sub	r9,1
80003d76:	18 0b       	add	r11,r12
80003d78:	18 3b       	cp.w	r11,r12
80003d7a:	c0 63       	brcs	80003d86 <__avr32_udiv64+0x66>
80003d7c:	10 3b       	cp.w	r11,r8
80003d7e:	f7 b9 03 01 	sublo	r9,1
80003d82:	f7 dc e3 0b 	addcs	r11,r11,r12
80003d86:	f6 08 01 01 	sub	r1,r11,r8
80003d8a:	e7 d3 c0 10 	bfextu	r3,r3,0x0,0x10
80003d8e:	e2 0e 0d 00 	divu	r0,r1,lr
80003d92:	e7 e1 11 03 	or	r3,r3,r1<<0x10
80003d96:	00 98       	mov	r8,r0
80003d98:	e0 0a 02 4a 	mul	r10,r0,r10
80003d9c:	14 33       	cp.w	r3,r10
80003d9e:	c0 82       	brcc	80003dae <__avr32_udiv64+0x8e>
80003da0:	20 18       	sub	r8,1
80003da2:	18 03       	add	r3,r12
80003da4:	18 33       	cp.w	r3,r12
80003da6:	c0 43       	brcs	80003dae <__avr32_udiv64+0x8e>
80003da8:	14 33       	cp.w	r3,r10
80003daa:	f7 b8 03 01 	sublo	r8,1
80003dae:	f1 e9 11 08 	or	r8,r8,r9<<0x10
80003db2:	cd f8       	rjmp	80003f70 <__avr32_udiv64+0x250>
80003db4:	58 08       	cp.w	r8,0
80003db6:	c0 51       	brne	80003dc0 <__avr32_udiv64+0xa0>
80003db8:	30 19       	mov	r9,1
80003dba:	f2 08 0d 08 	divu	r8,r9,r8
80003dbe:	10 9c       	mov	r12,r8
80003dc0:	f8 06 12 00 	clz	r6,r12
80003dc4:	c0 41       	brne	80003dcc <__avr32_udiv64+0xac>
80003dc6:	18 1b       	sub	r11,r12
80003dc8:	30 19       	mov	r9,1
80003dca:	c4 08       	rjmp	80003e4a <__avr32_udiv64+0x12a>
80003dcc:	ec 01 11 20 	rsub	r1,r6,32
80003dd0:	f4 01 0a 49 	lsr	r9,r10,r1
80003dd4:	f8 06 09 4c 	lsl	r12,r12,r6
80003dd8:	f6 06 09 48 	lsl	r8,r11,r6
80003ddc:	f6 01 0a 41 	lsr	r1,r11,r1
80003de0:	f3 e8 10 08 	or	r8,r9,r8
80003de4:	f8 03 16 10 	lsr	r3,r12,0x10
80003de8:	eb dc c0 10 	bfextu	r5,r12,0x0,0x10
80003dec:	e2 03 0d 00 	divu	r0,r1,r3
80003df0:	f0 0b 16 10 	lsr	r11,r8,0x10
80003df4:	00 9e       	mov	lr,r0
80003df6:	f7 e1 11 0b 	or	r11,r11,r1<<0x10
80003dfa:	e0 05 02 49 	mul	r9,r0,r5
80003dfe:	12 3b       	cp.w	r11,r9
80003e00:	c0 a2       	brcc	80003e14 <__avr32_udiv64+0xf4>
80003e02:	20 1e       	sub	lr,1
80003e04:	18 0b       	add	r11,r12
80003e06:	18 3b       	cp.w	r11,r12
80003e08:	c0 63       	brcs	80003e14 <__avr32_udiv64+0xf4>
80003e0a:	12 3b       	cp.w	r11,r9
80003e0c:	f7 be 03 01 	sublo	lr,1
80003e10:	f7 dc e3 0b 	addcs	r11,r11,r12
80003e14:	12 1b       	sub	r11,r9
80003e16:	f1 d8 c0 10 	bfextu	r8,r8,0x0,0x10
80003e1a:	f6 03 0d 02 	divu	r2,r11,r3
80003e1e:	f1 e3 11 08 	or	r8,r8,r3<<0x10
80003e22:	04 99       	mov	r9,r2
80003e24:	e4 05 02 4b 	mul	r11,r2,r5
80003e28:	16 38       	cp.w	r8,r11
80003e2a:	c0 a2       	brcc	80003e3e <__avr32_udiv64+0x11e>
80003e2c:	20 19       	sub	r9,1
80003e2e:	18 08       	add	r8,r12
80003e30:	18 38       	cp.w	r8,r12
80003e32:	c0 63       	brcs	80003e3e <__avr32_udiv64+0x11e>
80003e34:	16 38       	cp.w	r8,r11
80003e36:	f7 b9 03 01 	sublo	r9,1
80003e3a:	f1 dc e3 08 	addcs	r8,r8,r12
80003e3e:	f4 06 09 43 	lsl	r3,r10,r6
80003e42:	f0 0b 01 0b 	sub	r11,r8,r11
80003e46:	f3 ee 11 09 	or	r9,r9,lr<<0x10
80003e4a:	f8 06 16 10 	lsr	r6,r12,0x10
80003e4e:	fd dc c0 10 	bfextu	lr,r12,0x0,0x10
80003e52:	f6 06 0d 00 	divu	r0,r11,r6
80003e56:	e6 0b 16 10 	lsr	r11,r3,0x10
80003e5a:	00 9a       	mov	r10,r0
80003e5c:	f7 e1 11 0b 	or	r11,r11,r1<<0x10
80003e60:	e0 0e 02 48 	mul	r8,r0,lr
80003e64:	10 3b       	cp.w	r11,r8
80003e66:	c0 a2       	brcc	80003e7a <__avr32_udiv64+0x15a>
80003e68:	20 1a       	sub	r10,1
80003e6a:	18 0b       	add	r11,r12
80003e6c:	18 3b       	cp.w	r11,r12
80003e6e:	c0 63       	brcs	80003e7a <__avr32_udiv64+0x15a>
80003e70:	10 3b       	cp.w	r11,r8
80003e72:	f7 ba 03 01 	sublo	r10,1
80003e76:	f7 dc e3 0b 	addcs	r11,r11,r12
80003e7a:	f6 08 01 01 	sub	r1,r11,r8
80003e7e:	e7 d3 c0 10 	bfextu	r3,r3,0x0,0x10
80003e82:	e2 06 0d 00 	divu	r0,r1,r6
80003e86:	e7 e1 11 03 	or	r3,r3,r1<<0x10
80003e8a:	00 98       	mov	r8,r0
80003e8c:	e0 0e 02 4b 	mul	r11,r0,lr
80003e90:	16 33       	cp.w	r3,r11
80003e92:	c0 82       	brcc	80003ea2 <__avr32_udiv64+0x182>
80003e94:	20 18       	sub	r8,1
80003e96:	18 03       	add	r3,r12
80003e98:	18 33       	cp.w	r3,r12
80003e9a:	c0 43       	brcs	80003ea2 <__avr32_udiv64+0x182>
80003e9c:	16 33       	cp.w	r3,r11
80003e9e:	f7 b8 03 01 	sublo	r8,1
80003ea2:	f1 ea 11 08 	or	r8,r8,r10<<0x10
80003ea6:	c6 98       	rjmp	80003f78 <__avr32_udiv64+0x258>
80003ea8:	16 39       	cp.w	r9,r11
80003eaa:	e0 8b 00 65 	brhi	80003f74 <__avr32_udiv64+0x254>
80003eae:	f2 09 12 00 	clz	r9,r9
80003eb2:	c0 b1       	brne	80003ec8 <__avr32_udiv64+0x1a8>
80003eb4:	10 3a       	cp.w	r10,r8
80003eb6:	5f 2a       	srhs	r10
80003eb8:	1c 3b       	cp.w	r11,lr
80003eba:	5f b8       	srhi	r8
80003ebc:	10 4a       	or	r10,r8
80003ebe:	f2 0a 18 00 	cp.b	r10,r9
80003ec2:	c5 90       	breq	80003f74 <__avr32_udiv64+0x254>
80003ec4:	30 18       	mov	r8,1
80003ec6:	c5 98       	rjmp	80003f78 <__avr32_udiv64+0x258>
80003ec8:	f0 09 09 46 	lsl	r6,r8,r9
80003ecc:	f2 03 11 20 	rsub	r3,r9,32
80003ed0:	fc 09 09 4e 	lsl	lr,lr,r9
80003ed4:	f0 03 0a 48 	lsr	r8,r8,r3
80003ed8:	f6 09 09 4c 	lsl	r12,r11,r9
80003edc:	f4 03 0a 42 	lsr	r2,r10,r3
80003ee0:	ef 46 ff f4 	st.w	r7[-12],r6
80003ee4:	f6 03 0a 43 	lsr	r3,r11,r3
80003ee8:	18 42       	or	r2,r12
80003eea:	f1 ee 10 0c 	or	r12,r8,lr
80003eee:	f8 01 16 10 	lsr	r1,r12,0x10
80003ef2:	ed dc c0 10 	bfextu	r6,r12,0x0,0x10
80003ef6:	e6 01 0d 04 	divu	r4,r3,r1
80003efa:	e4 03 16 10 	lsr	r3,r2,0x10
80003efe:	08 9e       	mov	lr,r4
80003f00:	e7 e5 11 03 	or	r3,r3,r5<<0x10
80003f04:	e8 06 02 48 	mul	r8,r4,r6
80003f08:	10 33       	cp.w	r3,r8
80003f0a:	c0 a2       	brcc	80003f1e <__avr32_udiv64+0x1fe>
80003f0c:	20 1e       	sub	lr,1
80003f0e:	18 03       	add	r3,r12
80003f10:	18 33       	cp.w	r3,r12
80003f12:	c0 63       	brcs	80003f1e <__avr32_udiv64+0x1fe>
80003f14:	10 33       	cp.w	r3,r8
80003f16:	f7 be 03 01 	sublo	lr,1
80003f1a:	e7 dc e3 03 	addcs	r3,r3,r12
80003f1e:	10 13       	sub	r3,r8
80003f20:	f7 d2 c0 10 	bfextu	r11,r2,0x0,0x10
80003f24:	e6 01 0d 00 	divu	r0,r3,r1
80003f28:	f7 e1 11 0b 	or	r11,r11,r1<<0x10
80003f2c:	00 98       	mov	r8,r0
80003f2e:	e0 06 02 46 	mul	r6,r0,r6
80003f32:	0c 3b       	cp.w	r11,r6
80003f34:	c0 a2       	brcc	80003f48 <__avr32_udiv64+0x228>
80003f36:	20 18       	sub	r8,1
80003f38:	18 0b       	add	r11,r12
80003f3a:	18 3b       	cp.w	r11,r12
80003f3c:	c0 63       	brcs	80003f48 <__avr32_udiv64+0x228>
80003f3e:	0c 3b       	cp.w	r11,r6
80003f40:	f7 dc e3 0b 	addcs	r11,r11,r12
80003f44:	f7 b8 03 01 	sublo	r8,1
80003f48:	f1 ee 11 08 	or	r8,r8,lr<<0x10
80003f4c:	ee f4 ff f4 	ld.w	r4,r7[-12]
80003f50:	0c 1b       	sub	r11,r6
80003f52:	f0 04 06 42 	mulu.d	r2,r8,r4
80003f56:	06 95       	mov	r5,r3
80003f58:	16 35       	cp.w	r5,r11
80003f5a:	e0 8b 00 0a 	brhi	80003f6e <__avr32_udiv64+0x24e>
80003f5e:	5f 0b       	sreq	r11
80003f60:	f4 09 09 49 	lsl	r9,r10,r9
80003f64:	12 32       	cp.w	r2,r9
80003f66:	5f b9       	srhi	r9
80003f68:	f7 e9 00 09 	and	r9,r11,r9
80003f6c:	c0 60       	breq	80003f78 <__avr32_udiv64+0x258>
80003f6e:	20 18       	sub	r8,1
80003f70:	30 09       	mov	r9,0
80003f72:	c0 38       	rjmp	80003f78 <__avr32_udiv64+0x258>
80003f74:	30 09       	mov	r9,0
80003f76:	12 98       	mov	r8,r9
80003f78:	10 9a       	mov	r10,r8
80003f7a:	12 93       	mov	r3,r9
80003f7c:	10 92       	mov	r2,r8
80003f7e:	12 9b       	mov	r11,r9
80003f80:	2f dd       	sub	sp,-12
80003f82:	d8 32       	popm	r0-r7,pc

80003f84 <memcpy>:
80003f84:	58 8a       	cp.w	r10,8
80003f86:	c2 f5       	brlt	80003fe4 <memcpy+0x60>
80003f88:	f9 eb 10 09 	or	r9,r12,r11
80003f8c:	e2 19 00 03 	andl	r9,0x3,COH
80003f90:	e0 81 00 97 	brne	800040be <memcpy+0x13a>
80003f94:	e0 4a 00 20 	cp.w	r10,32
80003f98:	c3 b4       	brge	8000400e <memcpy+0x8a>
80003f9a:	f4 08 14 02 	asr	r8,r10,0x2
80003f9e:	f0 09 11 08 	rsub	r9,r8,8
80003fa2:	fe 09 00 2f 	add	pc,pc,r9<<0x2
80003fa6:	76 69       	ld.w	r9,r11[0x18]
80003fa8:	99 69       	st.w	r12[0x18],r9
80003faa:	76 59       	ld.w	r9,r11[0x14]
80003fac:	99 59       	st.w	r12[0x14],r9
80003fae:	76 49       	ld.w	r9,r11[0x10]
80003fb0:	99 49       	st.w	r12[0x10],r9
80003fb2:	76 39       	ld.w	r9,r11[0xc]
80003fb4:	99 39       	st.w	r12[0xc],r9
80003fb6:	76 29       	ld.w	r9,r11[0x8]
80003fb8:	99 29       	st.w	r12[0x8],r9
80003fba:	76 19       	ld.w	r9,r11[0x4]
80003fbc:	99 19       	st.w	r12[0x4],r9
80003fbe:	76 09       	ld.w	r9,r11[0x0]
80003fc0:	99 09       	st.w	r12[0x0],r9
80003fc2:	f6 08 00 2b 	add	r11,r11,r8<<0x2
80003fc6:	f8 08 00 28 	add	r8,r12,r8<<0x2
80003fca:	e0 1a 00 03 	andl	r10,0x3
80003fce:	f4 0a 11 04 	rsub	r10,r10,4
80003fd2:	fe 0a 00 2f 	add	pc,pc,r10<<0x2
80003fd6:	17 a9       	ld.ub	r9,r11[0x2]
80003fd8:	b0 a9       	st.b	r8[0x2],r9
80003fda:	17 99       	ld.ub	r9,r11[0x1]
80003fdc:	b0 99       	st.b	r8[0x1],r9
80003fde:	17 89       	ld.ub	r9,r11[0x0]
80003fe0:	b0 89       	st.b	r8[0x0],r9
80003fe2:	5e fc       	retal	r12
80003fe4:	f4 0a 11 09 	rsub	r10,r10,9
80003fe8:	fe 0a 00 2f 	add	pc,pc,r10<<0x2
80003fec:	17 f9       	ld.ub	r9,r11[0x7]
80003fee:	b8 f9       	st.b	r12[0x7],r9
80003ff0:	17 e9       	ld.ub	r9,r11[0x6]
80003ff2:	b8 e9       	st.b	r12[0x6],r9
80003ff4:	17 d9       	ld.ub	r9,r11[0x5]
80003ff6:	b8 d9       	st.b	r12[0x5],r9
80003ff8:	17 c9       	ld.ub	r9,r11[0x4]
80003ffa:	b8 c9       	st.b	r12[0x4],r9
80003ffc:	17 b9       	ld.ub	r9,r11[0x3]
80003ffe:	b8 b9       	st.b	r12[0x3],r9
80004000:	17 a9       	ld.ub	r9,r11[0x2]
80004002:	b8 a9       	st.b	r12[0x2],r9
80004004:	17 99       	ld.ub	r9,r11[0x1]
80004006:	b8 99       	st.b	r12[0x1],r9
80004008:	17 89       	ld.ub	r9,r11[0x0]
8000400a:	b8 89       	st.b	r12[0x0],r9
8000400c:	5e fc       	retal	r12
8000400e:	eb cd 40 c0 	pushm	r6-r7,lr
80004012:	18 99       	mov	r9,r12
80004014:	22 0a       	sub	r10,32
80004016:	b7 07       	ld.d	r6,r11++
80004018:	b3 26       	st.d	r9++,r6
8000401a:	b7 07       	ld.d	r6,r11++
8000401c:	b3 26       	st.d	r9++,r6
8000401e:	b7 07       	ld.d	r6,r11++
80004020:	b3 26       	st.d	r9++,r6
80004022:	b7 07       	ld.d	r6,r11++
80004024:	b3 26       	st.d	r9++,r6
80004026:	22 0a       	sub	r10,32
80004028:	cf 74       	brge	80004016 <memcpy+0x92>
8000402a:	2f 0a       	sub	r10,-16
8000402c:	c0 65       	brlt	80004038 <memcpy+0xb4>
8000402e:	b7 07       	ld.d	r6,r11++
80004030:	b3 26       	st.d	r9++,r6
80004032:	b7 07       	ld.d	r6,r11++
80004034:	b3 26       	st.d	r9++,r6
80004036:	21 0a       	sub	r10,16
80004038:	5c 3a       	neg	r10
8000403a:	fe 0a 00 3f 	add	pc,pc,r10<<0x3
8000403e:	d7 03       	nop
80004040:	d7 03       	nop
80004042:	f7 36 00 0e 	ld.ub	r6,r11[14]
80004046:	f3 66 00 0e 	st.b	r9[14],r6
8000404a:	f7 36 00 0d 	ld.ub	r6,r11[13]
8000404e:	f3 66 00 0d 	st.b	r9[13],r6
80004052:	f7 36 00 0c 	ld.ub	r6,r11[12]
80004056:	f3 66 00 0c 	st.b	r9[12],r6
8000405a:	f7 36 00 0b 	ld.ub	r6,r11[11]
8000405e:	f3 66 00 0b 	st.b	r9[11],r6
80004062:	f7 36 00 0a 	ld.ub	r6,r11[10]
80004066:	f3 66 00 0a 	st.b	r9[10],r6
8000406a:	f7 36 00 09 	ld.ub	r6,r11[9]
8000406e:	f3 66 00 09 	st.b	r9[9],r6
80004072:	f7 36 00 08 	ld.ub	r6,r11[8]
80004076:	f3 66 00 08 	st.b	r9[8],r6
8000407a:	f7 36 00 07 	ld.ub	r6,r11[7]
8000407e:	f3 66 00 07 	st.b	r9[7],r6
80004082:	f7 36 00 06 	ld.ub	r6,r11[6]
80004086:	f3 66 00 06 	st.b	r9[6],r6
8000408a:	f7 36 00 05 	ld.ub	r6,r11[5]
8000408e:	f3 66 00 05 	st.b	r9[5],r6
80004092:	f7 36 00 04 	ld.ub	r6,r11[4]
80004096:	f3 66 00 04 	st.b	r9[4],r6
8000409a:	f7 36 00 03 	ld.ub	r6,r11[3]
8000409e:	f3 66 00 03 	st.b	r9[3],r6
800040a2:	f7 36 00 02 	ld.ub	r6,r11[2]
800040a6:	f3 66 00 02 	st.b	r9[2],r6
800040aa:	f7 36 00 01 	ld.ub	r6,r11[1]
800040ae:	f3 66 00 01 	st.b	r9[1],r6
800040b2:	f7 36 00 00 	ld.ub	r6,r11[0]
800040b6:	f3 66 00 00 	st.b	r9[0],r6
800040ba:	e3 cd 80 c0 	ldm	sp++,r6-r7,pc
800040be:	20 1a       	sub	r10,1
800040c0:	f6 0a 07 09 	ld.ub	r9,r11[r10]
800040c4:	f8 0a 0b 09 	st.b	r12[r10],r9
800040c8:	cf b1       	brne	800040be <memcpy+0x13a>
800040ca:	5e fc       	retal	r12

800040cc <_puts_r>:
800040cc:	d4 21       	pushm	r4-r7,lr
800040ce:	20 7d       	sub	sp,28
800040d0:	16 96       	mov	r6,r11
800040d2:	18 97       	mov	r7,r12
800040d4:	16 9c       	mov	r12,r11
800040d6:	cb 9c       	rcall	80004248 <strlen>
800040d8:	f8 c8 ff ff 	sub	r8,r12,-1
800040dc:	50 68       	stdsp	sp[0x18],r8
800040de:	48 f8       	lddpc	r8,80004118 <_puts_r+0x4c>
800040e0:	50 28       	stdsp	sp[0x8],r8
800040e2:	30 18       	mov	r8,1
800040e4:	50 06       	stdsp	sp[0x0],r6
800040e6:	50 38       	stdsp	sp[0xc],r8
800040e8:	50 1c       	stdsp	sp[0x4],r12
800040ea:	30 28       	mov	r8,2
800040ec:	50 4d       	stdsp	sp[0x10],sp
800040ee:	50 58       	stdsp	sp[0x14],r8
800040f0:	58 07       	cp.w	r7,0
800040f2:	c0 60       	breq	800040fe <_puts_r+0x32>
800040f4:	6e 68       	ld.w	r8,r7[0x18]
800040f6:	58 08       	cp.w	r8,0
800040f8:	c0 31       	brne	800040fe <_puts_r+0x32>
800040fa:	0e 9c       	mov	r12,r7
800040fc:	c8 ed       	rcall	80004418 <__sinit>
800040fe:	0e 9c       	mov	r12,r7
80004100:	fa ca ff f0 	sub	r10,sp,-16
80004104:	6e 1b       	ld.w	r11,r7[0x4]
80004106:	e0 a0 02 ed 	rcall	800046e0 <__sfvwrite_r>
8000410a:	f9 bc 01 ff 	movne	r12,-1
8000410e:	f9 bc 00 0a 	moveq	r12,10
80004112:	2f 9d       	sub	sp,-28
80004114:	d8 22       	popm	r4-r7,pc
80004116:	d7 03       	nop
80004118:	80 00       	ld.sh	r0,r0[0x0]
8000411a:	59 08       	cp.w	r8,16

8000411c <puts>:
8000411c:	d4 01       	pushm	lr
8000411e:	48 38       	lddpc	r8,80004128 <puts+0xc>
80004120:	18 9b       	mov	r11,r12
80004122:	70 0c       	ld.w	r12,r8[0x0]
80004124:	cd 4f       	rcall	800040cc <_puts_r>
80004126:	d8 02       	popm	pc
80004128:	00 00       	add	r0,r0
8000412a:	01 c4       	ld.ub	r4,r0[0x4]

8000412c <setbuf>:
8000412c:	d4 01       	pushm	lr
8000412e:	e0 69 04 00 	mov	r9,1024
80004132:	58 0b       	cp.w	r11,0
80004134:	f9 ba 00 02 	moveq	r10,2
80004138:	f9 ba 01 00 	movne	r10,0
8000413c:	c0 2c       	rcall	80004140 <setvbuf>
8000413e:	d8 02       	popm	pc

80004140 <setvbuf>:
80004140:	d4 31       	pushm	r0-r7,lr
80004142:	4b e8       	lddpc	r8,80004238 <setvbuf+0xf8>
80004144:	18 97       	mov	r7,r12
80004146:	16 96       	mov	r6,r11
80004148:	14 95       	mov	r5,r10
8000414a:	12 94       	mov	r4,r9
8000414c:	70 0c       	ld.w	r12,r8[0x0]
8000414e:	58 0c       	cp.w	r12,0
80004150:	c0 50       	breq	8000415a <setvbuf+0x1a>
80004152:	78 68       	ld.w	r8,r12[0x18]
80004154:	58 08       	cp.w	r8,0
80004156:	c0 21       	brne	8000415a <setvbuf+0x1a>
80004158:	c6 0d       	rcall	80004418 <__sinit>
8000415a:	4b 98       	lddpc	r8,8000423c <setvbuf+0xfc>
8000415c:	10 37       	cp.w	r7,r8
8000415e:	c0 51       	brne	80004168 <setvbuf+0x28>
80004160:	4b 68       	lddpc	r8,80004238 <setvbuf+0xf8>
80004162:	70 08       	ld.w	r8,r8[0x0]
80004164:	70 07       	ld.w	r7,r8[0x0]
80004166:	c0 e8       	rjmp	80004182 <setvbuf+0x42>
80004168:	4b 68       	lddpc	r8,80004240 <setvbuf+0x100>
8000416a:	10 37       	cp.w	r7,r8
8000416c:	c0 51       	brne	80004176 <setvbuf+0x36>
8000416e:	4b 38       	lddpc	r8,80004238 <setvbuf+0xf8>
80004170:	70 08       	ld.w	r8,r8[0x0]
80004172:	70 17       	ld.w	r7,r8[0x4]
80004174:	c0 78       	rjmp	80004182 <setvbuf+0x42>
80004176:	4b 48       	lddpc	r8,80004244 <setvbuf+0x104>
80004178:	10 37       	cp.w	r7,r8
8000417a:	c0 41       	brne	80004182 <setvbuf+0x42>
8000417c:	4a f8       	lddpc	r8,80004238 <setvbuf+0xf8>
8000417e:	70 08       	ld.w	r8,r8[0x0]
80004180:	70 27       	ld.w	r7,r8[0x8]
80004182:	58 25       	cp.w	r5,2
80004184:	5f b8       	srhi	r8
80004186:	f1 e4 13 f8 	or	r8,r8,r4>>0x1f
8000418a:	c0 20       	breq	8000418e <setvbuf+0x4e>
8000418c:	dc 3a       	popm	r0-r7,pc,r12=-1
8000418e:	4a b3       	lddpc	r3,80004238 <setvbuf+0xf8>
80004190:	0e 9b       	mov	r11,r7
80004192:	66 0c       	ld.w	r12,r3[0x0]
80004194:	c6 6c       	rcall	80004260 <_fflush_r>
80004196:	30 08       	mov	r8,0
80004198:	8f 68       	st.w	r7[0x18],r8
8000419a:	8f 18       	st.w	r7[0x4],r8
8000419c:	8e 68       	ld.sh	r8,r7[0xc]
8000419e:	ed b8 00 07 	bld	r8,0x7
800041a2:	c0 41       	brne	800041aa <setvbuf+0x6a>
800041a4:	66 0c       	ld.w	r12,r3[0x0]
800041a6:	6e 4b       	ld.w	r11,r7[0x10]
800041a8:	cd 4d       	rcall	80004550 <_free_r>
800041aa:	8e 68       	ld.sh	r8,r7[0xc]
800041ac:	e0 18 ff 7c 	andl	r8,0xff7c
800041b0:	ae 68       	st.h	r7[0xc],r8
800041b2:	58 25       	cp.w	r5,2
800041b4:	c0 31       	brne	800041ba <setvbuf+0x7a>
800041b6:	30 0c       	mov	r12,0
800041b8:	c1 38       	rjmp	800041de <setvbuf+0x9e>
800041ba:	58 06       	cp.w	r6,0
800041bc:	c2 11       	brne	800041fe <setvbuf+0xbe>
800041be:	e0 63 04 00 	mov	r3,1024
800041c2:	58 04       	cp.w	r4,0
800041c4:	e6 04 17 00 	moveq	r4,r3
800041c8:	08 9c       	mov	r12,r4
800041ca:	e0 a0 04 01 	rcall	800049cc <malloc>
800041ce:	18 96       	mov	r6,r12
800041d0:	c1 41       	brne	800041f8 <setvbuf+0xb8>
800041d2:	06 9c       	mov	r12,r3
800041d4:	e0 a0 03 fc 	rcall	800049cc <malloc>
800041d8:	18 96       	mov	r6,r12
800041da:	c0 e1       	brne	800041f6 <setvbuf+0xb6>
800041dc:	3f fc       	mov	r12,-1
800041de:	8e 68       	ld.sh	r8,r7[0xc]
800041e0:	a1 b8       	sbr	r8,0x1
800041e2:	ae 68       	st.h	r7[0xc],r8
800041e4:	ee c8 ff b9 	sub	r8,r7,-71
800041e8:	8f 48       	st.w	r7[0x10],r8
800041ea:	8f 08       	st.w	r7[0x0],r8
800041ec:	30 08       	mov	r8,0
800041ee:	8f 28       	st.w	r7[0x8],r8
800041f0:	30 18       	mov	r8,1
800041f2:	8f 58       	st.w	r7[0x14],r8
800041f4:	d8 32       	popm	r0-r7,pc
800041f6:	06 94       	mov	r4,r3
800041f8:	8e 68       	ld.sh	r8,r7[0xc]
800041fa:	a7 b8       	sbr	r8,0x7
800041fc:	ae 68       	st.h	r7[0xc],r8
800041fe:	58 15       	cp.w	r5,1
80004200:	c0 71       	brne	8000420e <setvbuf+0xce>
80004202:	8e 68       	ld.sh	r8,r7[0xc]
80004204:	a1 a8       	sbr	r8,0x0
80004206:	ae 68       	st.h	r7[0xc],r8
80004208:	e8 08 11 00 	rsub	r8,r4,0
8000420c:	8f 68       	st.w	r7[0x18],r8
8000420e:	48 b8       	lddpc	r8,80004238 <setvbuf+0xf8>
80004210:	fe c9 fe 9c 	sub	r9,pc,-356
80004214:	70 08       	ld.w	r8,r8[0x0]
80004216:	8f 46       	st.w	r7[0x10],r6
80004218:	91 a9       	st.w	r8[0x28],r9
8000421a:	8f 06       	st.w	r7[0x0],r6
8000421c:	8f 54       	st.w	r7[0x14],r4
8000421e:	8e 68       	ld.sh	r8,r7[0xc]
80004220:	10 9c       	mov	r12,r8
80004222:	e2 1c 00 08 	andl	r12,0x8,COH
80004226:	c0 70       	breq	80004234 <setvbuf+0xf4>
80004228:	f1 d8 c0 02 	bfextu	r8,r8,0x0,0x2
8000422c:	30 0c       	mov	r12,0
8000422e:	f9 b4 01 00 	movne	r4,0
80004232:	8f 24       	st.w	r7[0x8],r4
80004234:	d8 32       	popm	r0-r7,pc
80004236:	d7 03       	nop
80004238:	00 00       	add	r0,r0
8000423a:	01 c4       	ld.ub	r4,r0[0x4]
8000423c:	80 00       	ld.sh	r0,r0[0x0]
8000423e:	59 0c       	cp.w	r12,16
80004240:	80 00       	ld.sh	r0,r0[0x0]
80004242:	59 2c       	cp.w	r12,18
80004244:	80 00       	ld.sh	r0,r0[0x0]
80004246:	59 4c       	cp.w	r12,20

80004248 <strlen>:
80004248:	30 09       	mov	r9,0
8000424a:	18 98       	mov	r8,r12
8000424c:	c0 28       	rjmp	80004250 <strlen+0x8>
8000424e:	2f f8       	sub	r8,-1
80004250:	11 8a       	ld.ub	r10,r8[0x0]
80004252:	f2 0a 18 00 	cp.b	r10,r9
80004256:	cf c1       	brne	8000424e <strlen+0x6>
80004258:	f0 0c 01 0c 	sub	r12,r8,r12
8000425c:	5e fc       	retal	r12
8000425e:	d7 03       	nop

80004260 <_fflush_r>:
80004260:	d4 21       	pushm	r4-r7,lr
80004262:	16 97       	mov	r7,r11
80004264:	18 96       	mov	r6,r12
80004266:	76 48       	ld.w	r8,r11[0x10]
80004268:	58 08       	cp.w	r8,0
8000426a:	c7 c0       	breq	80004362 <_fflush_r+0x102>
8000426c:	58 0c       	cp.w	r12,0
8000426e:	c0 50       	breq	80004278 <_fflush_r+0x18>
80004270:	78 68       	ld.w	r8,r12[0x18]
80004272:	58 08       	cp.w	r8,0
80004274:	c0 21       	brne	80004278 <_fflush_r+0x18>
80004276:	cd 1c       	rcall	80004418 <__sinit>
80004278:	4b b8       	lddpc	r8,80004364 <_fflush_r+0x104>
8000427a:	10 37       	cp.w	r7,r8
8000427c:	c0 31       	brne	80004282 <_fflush_r+0x22>
8000427e:	6c 07       	ld.w	r7,r6[0x0]
80004280:	c0 a8       	rjmp	80004294 <_fflush_r+0x34>
80004282:	4b a8       	lddpc	r8,80004368 <_fflush_r+0x108>
80004284:	10 37       	cp.w	r7,r8
80004286:	c0 31       	brne	8000428c <_fflush_r+0x2c>
80004288:	6c 17       	ld.w	r7,r6[0x4]
8000428a:	c0 58       	rjmp	80004294 <_fflush_r+0x34>
8000428c:	4b 88       	lddpc	r8,8000436c <_fflush_r+0x10c>
8000428e:	10 37       	cp.w	r7,r8
80004290:	ed f7 00 02 	ld.weq	r7,r6[0x8]
80004294:	8e 6a       	ld.sh	r10,r7[0xc]
80004296:	14 98       	mov	r8,r10
80004298:	ed ba 00 03 	bld	r10,0x3
8000429c:	c4 20       	breq	80004320 <_fflush_r+0xc0>
8000429e:	ab ba       	sbr	r10,0xb
800042a0:	ae 6a       	st.h	r7[0xc],r10
800042a2:	6e 18       	ld.w	r8,r7[0x4]
800042a4:	58 08       	cp.w	r8,0
800042a6:	e0 89 00 06 	brgt	800042b2 <_fflush_r+0x52>
800042aa:	6f 08       	ld.w	r8,r7[0x40]
800042ac:	58 08       	cp.w	r8,0
800042ae:	e0 8a 00 5a 	brle	80004362 <_fflush_r+0x102>
800042b2:	6e b8       	ld.w	r8,r7[0x2c]
800042b4:	58 08       	cp.w	r8,0
800042b6:	c5 60       	breq	80004362 <_fflush_r+0x102>
800042b8:	e2 1a 10 00 	andl	r10,0x1000,COH
800042bc:	c0 30       	breq	800042c2 <_fflush_r+0x62>
800042be:	6f 55       	ld.w	r5,r7[0x54]
800042c0:	c0 f8       	rjmp	800042de <_fflush_r+0x7e>
800042c2:	30 19       	mov	r9,1
800042c4:	6e 8b       	ld.w	r11,r7[0x20]
800042c6:	0c 9c       	mov	r12,r6
800042c8:	5d 18       	icall	r8
800042ca:	18 95       	mov	r5,r12
800042cc:	5b fc       	cp.w	r12,-1
800042ce:	c0 81       	brne	800042de <_fflush_r+0x7e>
800042d0:	6c 38       	ld.w	r8,r6[0xc]
800042d2:	59 d8       	cp.w	r8,29
800042d4:	c4 70       	breq	80004362 <_fflush_r+0x102>
800042d6:	8e 68       	ld.sh	r8,r7[0xc]
800042d8:	a7 a8       	sbr	r8,0x6
800042da:	ae 68       	st.h	r7[0xc],r8
800042dc:	d8 22       	popm	r4-r7,pc
800042de:	8e 68       	ld.sh	r8,r7[0xc]
800042e0:	ed b8 00 02 	bld	r8,0x2
800042e4:	c0 91       	brne	800042f6 <_fflush_r+0x96>
800042e6:	6e 18       	ld.w	r8,r7[0x4]
800042e8:	10 15       	sub	r5,r8
800042ea:	6e d8       	ld.w	r8,r7[0x34]
800042ec:	58 08       	cp.w	r8,0
800042ee:	ef f8 10 10 	ld.wne	r8,r7[0x40]
800042f2:	eb d8 e1 15 	subne	r5,r5,r8
800042f6:	6e b8       	ld.w	r8,r7[0x2c]
800042f8:	0c 9c       	mov	r12,r6
800042fa:	30 09       	mov	r9,0
800042fc:	0a 9a       	mov	r10,r5
800042fe:	6e 8b       	ld.w	r11,r7[0x20]
80004300:	5d 18       	icall	r8
80004302:	8e 68       	ld.sh	r8,r7[0xc]
80004304:	0a 3c       	cp.w	r12,r5
80004306:	c2 61       	brne	80004352 <_fflush_r+0xf2>
80004308:	ab d8       	cbr	r8,0xb
8000430a:	30 0c       	mov	r12,0
8000430c:	6e 49       	ld.w	r9,r7[0x10]
8000430e:	ae 68       	st.h	r7[0xc],r8
80004310:	8f 1c       	st.w	r7[0x4],r12
80004312:	8f 09       	st.w	r7[0x0],r9
80004314:	ed b8 00 0c 	bld	r8,0xc
80004318:	c2 51       	brne	80004362 <_fflush_r+0x102>
8000431a:	ef 45 00 54 	st.w	r7[84],r5
8000431e:	d8 22       	popm	r4-r7,pc
80004320:	6e 45       	ld.w	r5,r7[0x10]
80004322:	58 05       	cp.w	r5,0
80004324:	c1 f0       	breq	80004362 <_fflush_r+0x102>
80004326:	6e 04       	ld.w	r4,r7[0x0]
80004328:	f5 da c0 02 	bfextu	r10,r10,0x0,0x2
8000432c:	8f 05       	st.w	r7[0x0],r5
8000432e:	f9 b8 01 00 	movne	r8,0
80004332:	ef f8 00 05 	ld.weq	r8,r7[0x14]
80004336:	0a 14       	sub	r4,r5
80004338:	8f 28       	st.w	r7[0x8],r8
8000433a:	c1 18       	rjmp	8000435c <_fflush_r+0xfc>
8000433c:	08 99       	mov	r9,r4
8000433e:	0a 9a       	mov	r10,r5
80004340:	6e a8       	ld.w	r8,r7[0x28]
80004342:	6e 8b       	ld.w	r11,r7[0x20]
80004344:	0c 9c       	mov	r12,r6
80004346:	5d 18       	icall	r8
80004348:	18 14       	sub	r4,r12
8000434a:	58 0c       	cp.w	r12,0
8000434c:	e0 89 00 07 	brgt	8000435a <_fflush_r+0xfa>
80004350:	8e 68       	ld.sh	r8,r7[0xc]
80004352:	a7 a8       	sbr	r8,0x6
80004354:	3f fc       	mov	r12,-1
80004356:	ae 68       	st.h	r7[0xc],r8
80004358:	d8 22       	popm	r4-r7,pc
8000435a:	18 05       	add	r5,r12
8000435c:	58 04       	cp.w	r4,0
8000435e:	fe 99 ff ef 	brgt	8000433c <_fflush_r+0xdc>
80004362:	d8 2a       	popm	r4-r7,pc,r12=0
80004364:	80 00       	ld.sh	r0,r0[0x0]
80004366:	59 0c       	cp.w	r12,16
80004368:	80 00       	ld.sh	r0,r0[0x0]
8000436a:	59 2c       	cp.w	r12,18
8000436c:	80 00       	ld.sh	r0,r0[0x0]
8000436e:	59 4c       	cp.w	r12,20

80004370 <__sfp_lock_acquire>:
80004370:	5e fc       	retal	r12

80004372 <__sfp_lock_release>:
80004372:	5e fc       	retal	r12

80004374 <_cleanup_r>:
80004374:	d4 01       	pushm	lr
80004376:	fe cb ee e6 	sub	r11,pc,-4378
8000437a:	e0 a0 03 03 	rcall	80004980 <_fwalk>
8000437e:	d8 02       	popm	pc

80004380 <__sfmoreglue>:
80004380:	d4 21       	pushm	r4-r7,lr
80004382:	16 95       	mov	r5,r11
80004384:	f6 06 10 5c 	mul	r6,r11,92
80004388:	ec cb ff f4 	sub	r11,r6,-12
8000438c:	e0 a0 03 28 	rcall	800049dc <_malloc_r>
80004390:	18 97       	mov	r7,r12
80004392:	c0 90       	breq	800043a4 <__sfmoreglue+0x24>
80004394:	99 15       	st.w	r12[0x4],r5
80004396:	30 0b       	mov	r11,0
80004398:	2f 4c       	sub	r12,-12
8000439a:	0c 9a       	mov	r10,r6
8000439c:	8f 2c       	st.w	r7[0x8],r12
8000439e:	8f 0b       	st.w	r7[0x0],r11
800043a0:	e0 a0 05 5e 	rcall	80004e5c <memset>
800043a4:	0e 9c       	mov	r12,r7
800043a6:	d8 22       	popm	r4-r7,pc

800043a8 <__sfp>:
800043a8:	d4 21       	pushm	r4-r7,lr
800043aa:	49 b8       	lddpc	r8,80004414 <__sfp+0x6c>
800043ac:	18 96       	mov	r6,r12
800043ae:	70 07       	ld.w	r7,r8[0x0]
800043b0:	6e 68       	ld.w	r8,r7[0x18]
800043b2:	58 08       	cp.w	r8,0
800043b4:	c0 31       	brne	800043ba <__sfp+0x12>
800043b6:	0e 9c       	mov	r12,r7
800043b8:	c3 0c       	rcall	80004418 <__sinit>
800043ba:	ee c7 ff 28 	sub	r7,r7,-216
800043be:	30 05       	mov	r5,0
800043c0:	6e 2c       	ld.w	r12,r7[0x8]
800043c2:	6e 18       	ld.w	r8,r7[0x4]
800043c4:	c0 68       	rjmp	800043d0 <__sfp+0x28>
800043c6:	98 69       	ld.sh	r9,r12[0xc]
800043c8:	ea 09 19 00 	cp.h	r9,r5
800043cc:	c1 10       	breq	800043ee <__sfp+0x46>
800043ce:	2a 4c       	sub	r12,-92
800043d0:	20 18       	sub	r8,1
800043d2:	cf a7       	brpl	800043c6 <__sfp+0x1e>
800043d4:	6e 08       	ld.w	r8,r7[0x0]
800043d6:	58 08       	cp.w	r8,0
800043d8:	c0 61       	brne	800043e4 <__sfp+0x3c>
800043da:	30 4b       	mov	r11,4
800043dc:	0c 9c       	mov	r12,r6
800043de:	cd 1f       	rcall	80004380 <__sfmoreglue>
800043e0:	8f 0c       	st.w	r7[0x0],r12
800043e2:	c0 30       	breq	800043e8 <__sfp+0x40>
800043e4:	6e 07       	ld.w	r7,r7[0x0]
800043e6:	ce db       	rjmp	800043c0 <__sfp+0x18>
800043e8:	30 c8       	mov	r8,12
800043ea:	8d 38       	st.w	r6[0xc],r8
800043ec:	d8 22       	popm	r4-r7,pc
800043ee:	30 08       	mov	r8,0
800043f0:	f9 48 00 4c 	st.w	r12[76],r8
800043f4:	99 08       	st.w	r12[0x0],r8
800043f6:	99 28       	st.w	r12[0x8],r8
800043f8:	99 18       	st.w	r12[0x4],r8
800043fa:	99 48       	st.w	r12[0x10],r8
800043fc:	99 58       	st.w	r12[0x14],r8
800043fe:	99 68       	st.w	r12[0x18],r8
80004400:	99 d8       	st.w	r12[0x34],r8
80004402:	99 e8       	st.w	r12[0x38],r8
80004404:	f9 48 00 48 	st.w	r12[72],r8
80004408:	3f f8       	mov	r8,-1
8000440a:	b8 78       	st.h	r12[0xe],r8
8000440c:	30 18       	mov	r8,1
8000440e:	b8 68       	st.h	r12[0xc],r8
80004410:	d8 22       	popm	r4-r7,pc
80004412:	d7 03       	nop
80004414:	80 00       	ld.sh	r0,r0[0x0]
80004416:	59 04       	cp.w	r4,16

80004418 <__sinit>:
80004418:	d4 21       	pushm	r4-r7,lr
8000441a:	18 96       	mov	r6,r12
8000441c:	78 67       	ld.w	r7,r12[0x18]
8000441e:	58 07       	cp.w	r7,0
80004420:	c4 91       	brne	800044b2 <__sinit+0x9a>
80004422:	fe c8 00 ae 	sub	r8,pc,174
80004426:	30 15       	mov	r5,1
80004428:	99 a8       	st.w	r12[0x28],r8
8000442a:	f9 47 00 d8 	st.w	r12[216],r7
8000442e:	f9 47 00 dc 	st.w	r12[220],r7
80004432:	f9 47 00 e0 	st.w	r12[224],r7
80004436:	99 65       	st.w	r12[0x18],r5
80004438:	cb 8f       	rcall	800043a8 <__sfp>
8000443a:	8d 0c       	st.w	r6[0x0],r12
8000443c:	0c 9c       	mov	r12,r6
8000443e:	cb 5f       	rcall	800043a8 <__sfp>
80004440:	8d 1c       	st.w	r6[0x4],r12
80004442:	0c 9c       	mov	r12,r6
80004444:	cb 2f       	rcall	800043a8 <__sfp>
80004446:	6c 09       	ld.w	r9,r6[0x0]
80004448:	30 48       	mov	r8,4
8000444a:	93 07       	st.w	r9[0x0],r7
8000444c:	b2 68       	st.h	r9[0xc],r8
8000444e:	93 17       	st.w	r9[0x4],r7
80004450:	93 27       	st.w	r9[0x8],r7
80004452:	6c 18       	ld.w	r8,r6[0x4]
80004454:	b2 77       	st.h	r9[0xe],r7
80004456:	93 47       	st.w	r9[0x10],r7
80004458:	93 57       	st.w	r9[0x14],r7
8000445a:	93 67       	st.w	r9[0x18],r7
8000445c:	93 89       	st.w	r9[0x20],r9
8000445e:	91 07       	st.w	r8[0x0],r7
80004460:	91 17       	st.w	r8[0x4],r7
80004462:	91 27       	st.w	r8[0x8],r7
80004464:	fe ce f2 c4 	sub	lr,pc,-3388
80004468:	fe cb f2 f4 	sub	r11,pc,-3340
8000446c:	93 9e       	st.w	r9[0x24],lr
8000446e:	93 ab       	st.w	r9[0x28],r11
80004470:	fe ca f3 1c 	sub	r10,pc,-3300
80004474:	fe c4 f3 28 	sub	r4,pc,-3288
80004478:	93 ba       	st.w	r9[0x2c],r10
8000447a:	93 c4       	st.w	r9[0x30],r4
8000447c:	30 99       	mov	r9,9
8000447e:	b0 69       	st.h	r8[0xc],r9
80004480:	b0 75       	st.h	r8[0xe],r5
80004482:	91 c4       	st.w	r8[0x30],r4
80004484:	91 47       	st.w	r8[0x10],r7
80004486:	91 57       	st.w	r8[0x14],r7
80004488:	91 67       	st.w	r8[0x18],r7
8000448a:	91 88       	st.w	r8[0x20],r8
8000448c:	91 9e       	st.w	r8[0x24],lr
8000448e:	91 ab       	st.w	r8[0x28],r11
80004490:	91 ba       	st.w	r8[0x2c],r10
80004492:	8d 2c       	st.w	r6[0x8],r12
80004494:	31 28       	mov	r8,18
80004496:	99 07       	st.w	r12[0x0],r7
80004498:	b8 68       	st.h	r12[0xc],r8
8000449a:	99 17       	st.w	r12[0x4],r7
8000449c:	99 27       	st.w	r12[0x8],r7
8000449e:	30 28       	mov	r8,2
800044a0:	b8 78       	st.h	r12[0xe],r8
800044a2:	99 c4       	st.w	r12[0x30],r4
800044a4:	99 67       	st.w	r12[0x18],r7
800044a6:	99 9e       	st.w	r12[0x24],lr
800044a8:	99 ab       	st.w	r12[0x28],r11
800044aa:	99 ba       	st.w	r12[0x2c],r10
800044ac:	99 47       	st.w	r12[0x10],r7
800044ae:	99 57       	st.w	r12[0x14],r7
800044b0:	99 8c       	st.w	r12[0x20],r12
800044b2:	d8 22       	popm	r4-r7,pc

800044b4 <_malloc_trim_r>:
800044b4:	d4 21       	pushm	r4-r7,lr
800044b6:	16 95       	mov	r5,r11
800044b8:	18 97       	mov	r7,r12
800044ba:	e0 a0 04 d8 	rcall	80004e6a <__malloc_lock>
800044be:	4a 24       	lddpc	r4,80004544 <_malloc_trim_r+0x90>
800044c0:	68 28       	ld.w	r8,r4[0x8]
800044c2:	70 16       	ld.w	r6,r8[0x4]
800044c4:	e0 16 ff fc 	andl	r6,0xfffc
800044c8:	ec c8 ff 91 	sub	r8,r6,-111
800044cc:	f0 05 01 05 	sub	r5,r8,r5
800044d0:	e0 15 ff 80 	andl	r5,0xff80
800044d4:	ea c5 00 80 	sub	r5,r5,128
800044d8:	e0 45 00 7f 	cp.w	r5,127
800044dc:	e0 8a 00 23 	brle	80004522 <_malloc_trim_r+0x6e>
800044e0:	30 0b       	mov	r11,0
800044e2:	0e 9c       	mov	r12,r7
800044e4:	e0 a0 06 24 	rcall	8000512c <_sbrk_r>
800044e8:	68 28       	ld.w	r8,r4[0x8]
800044ea:	0c 08       	add	r8,r6
800044ec:	10 3c       	cp.w	r12,r8
800044ee:	c1 a1       	brne	80004522 <_malloc_trim_r+0x6e>
800044f0:	ea 0b 11 00 	rsub	r11,r5,0
800044f4:	0e 9c       	mov	r12,r7
800044f6:	e0 a0 06 1b 	rcall	8000512c <_sbrk_r>
800044fa:	5b fc       	cp.w	r12,-1
800044fc:	c1 71       	brne	8000452a <_malloc_trim_r+0x76>
800044fe:	30 0b       	mov	r11,0
80004500:	0e 9c       	mov	r12,r7
80004502:	e0 a0 06 15 	rcall	8000512c <_sbrk_r>
80004506:	68 28       	ld.w	r8,r4[0x8]
80004508:	f8 08 01 09 	sub	r9,r12,r8
8000450c:	58 f9       	cp.w	r9,15
8000450e:	e0 8a 00 0a 	brle	80004522 <_malloc_trim_r+0x6e>
80004512:	a1 a9       	sbr	r9,0x0
80004514:	91 19       	st.w	r8[0x4],r9
80004516:	48 d8       	lddpc	r8,80004548 <_malloc_trim_r+0x94>
80004518:	70 09       	ld.w	r9,r8[0x0]
8000451a:	48 d8       	lddpc	r8,8000454c <_malloc_trim_r+0x98>
8000451c:	f8 09 01 09 	sub	r9,r12,r9
80004520:	91 09       	st.w	r8[0x0],r9
80004522:	0e 9c       	mov	r12,r7
80004524:	e0 a0 04 a4 	rcall	80004e6c <__malloc_unlock>
80004528:	d8 2a       	popm	r4-r7,pc,r12=0
8000452a:	68 28       	ld.w	r8,r4[0x8]
8000452c:	0a 16       	sub	r6,r5
8000452e:	a1 a6       	sbr	r6,0x0
80004530:	91 16       	st.w	r8[0x4],r6
80004532:	48 78       	lddpc	r8,8000454c <_malloc_trim_r+0x98>
80004534:	70 09       	ld.w	r9,r8[0x0]
80004536:	0a 19       	sub	r9,r5
80004538:	0e 9c       	mov	r12,r7
8000453a:	91 09       	st.w	r8[0x0],r9
8000453c:	e0 a0 04 98 	rcall	80004e6c <__malloc_unlock>
80004540:	da 2a       	popm	r4-r7,pc,r12=1
80004542:	d7 03       	nop
80004544:	00 00       	add	r0,r0
80004546:	01 c8       	ld.ub	r8,r0[0x4]
80004548:	00 00       	add	r0,r0
8000454a:	05 d4       	ld.ub	r4,r2[0x5]
8000454c:	00 00       	add	r0,r0
8000454e:	0c 6c       	and	r12,r6

80004550 <_free_r>:
80004550:	d4 21       	pushm	r4-r7,lr
80004552:	16 96       	mov	r6,r11
80004554:	18 97       	mov	r7,r12
80004556:	58 0b       	cp.w	r11,0
80004558:	e0 80 00 c2 	breq	800046dc <_free_r+0x18c>
8000455c:	e0 a0 04 87 	rcall	80004e6a <__malloc_lock>
80004560:	20 86       	sub	r6,8
80004562:	4c ba       	lddpc	r10,8000468c <_free_r+0x13c>
80004564:	6c 18       	ld.w	r8,r6[0x4]
80004566:	74 2e       	ld.w	lr,r10[0x8]
80004568:	f9 d8 c0 01 	bfextu	r12,r8,0x0,0x1
8000456c:	a1 c8       	cbr	r8,0x0
8000456e:	ec 08 00 09 	add	r9,r6,r8
80004572:	72 1b       	ld.w	r11,r9[0x4]
80004574:	e0 1b ff fc 	andl	r11,0xfffc
80004578:	1c 39       	cp.w	r9,lr
8000457a:	c1 c1       	brne	800045b2 <_free_r+0x62>
8000457c:	f6 08 00 08 	add	r8,r11,r8
80004580:	58 0c       	cp.w	r12,0
80004582:	c0 81       	brne	80004592 <_free_r+0x42>
80004584:	6c 09       	ld.w	r9,r6[0x0]
80004586:	12 16       	sub	r6,r9
80004588:	12 08       	add	r8,r9
8000458a:	6c 3b       	ld.w	r11,r6[0xc]
8000458c:	6c 29       	ld.w	r9,r6[0x8]
8000458e:	97 29       	st.w	r11[0x8],r9
80004590:	93 3b       	st.w	r9[0xc],r11
80004592:	10 99       	mov	r9,r8
80004594:	95 26       	st.w	r10[0x8],r6
80004596:	a1 a9       	sbr	r9,0x0
80004598:	8d 19       	st.w	r6[0x4],r9
8000459a:	4b e9       	lddpc	r9,80004690 <_free_r+0x140>
8000459c:	72 09       	ld.w	r9,r9[0x0]
8000459e:	12 38       	cp.w	r8,r9
800045a0:	c0 53       	brcs	800045aa <_free_r+0x5a>
800045a2:	4b d8       	lddpc	r8,80004694 <_free_r+0x144>
800045a4:	0e 9c       	mov	r12,r7
800045a6:	70 0b       	ld.w	r11,r8[0x0]
800045a8:	c8 6f       	rcall	800044b4 <_malloc_trim_r>
800045aa:	0e 9c       	mov	r12,r7
800045ac:	e0 a0 04 60 	rcall	80004e6c <__malloc_unlock>
800045b0:	d8 22       	popm	r4-r7,pc
800045b2:	93 1b       	st.w	r9[0x4],r11
800045b4:	58 0c       	cp.w	r12,0
800045b6:	c0 30       	breq	800045bc <_free_r+0x6c>
800045b8:	30 0c       	mov	r12,0
800045ba:	c1 08       	rjmp	800045da <_free_r+0x8a>
800045bc:	6c 0e       	ld.w	lr,r6[0x0]
800045be:	f4 c5 ff f8 	sub	r5,r10,-8
800045c2:	1c 16       	sub	r6,lr
800045c4:	1c 08       	add	r8,lr
800045c6:	6c 2e       	ld.w	lr,r6[0x8]
800045c8:	0a 3e       	cp.w	lr,r5
800045ca:	f9 bc 00 01 	moveq	r12,1
800045ce:	ed f5 10 03 	ld.wne	r5,r6[0xc]
800045d2:	eb fe 1a 02 	st.wne	r5[0x8],lr
800045d6:	fd f5 1a 03 	st.wne	lr[0xc],r5
800045da:	f2 0b 00 0e 	add	lr,r9,r11
800045de:	7c 1e       	ld.w	lr,lr[0x4]
800045e0:	ed be 00 00 	bld	lr,0x0
800045e4:	c1 30       	breq	8000460a <_free_r+0xba>
800045e6:	16 08       	add	r8,r11
800045e8:	58 0c       	cp.w	r12,0
800045ea:	c0 c1       	brne	80004602 <_free_r+0xb2>
800045ec:	4a 8e       	lddpc	lr,8000468c <_free_r+0x13c>
800045ee:	72 2b       	ld.w	r11,r9[0x8]
800045f0:	2f 8e       	sub	lr,-8
800045f2:	1c 3b       	cp.w	r11,lr
800045f4:	c0 71       	brne	80004602 <_free_r+0xb2>
800045f6:	97 36       	st.w	r11[0xc],r6
800045f8:	97 26       	st.w	r11[0x8],r6
800045fa:	8d 2b       	st.w	r6[0x8],r11
800045fc:	8d 3b       	st.w	r6[0xc],r11
800045fe:	30 1c       	mov	r12,1
80004600:	c0 58       	rjmp	8000460a <_free_r+0xba>
80004602:	72 2b       	ld.w	r11,r9[0x8]
80004604:	72 39       	ld.w	r9,r9[0xc]
80004606:	93 2b       	st.w	r9[0x8],r11
80004608:	97 39       	st.w	r11[0xc],r9
8000460a:	10 99       	mov	r9,r8
8000460c:	ec 08 09 08 	st.w	r6[r8],r8
80004610:	a1 a9       	sbr	r9,0x0
80004612:	8d 19       	st.w	r6[0x4],r9
80004614:	58 0c       	cp.w	r12,0
80004616:	c6 01       	brne	800046d6 <_free_r+0x186>
80004618:	e0 48 01 ff 	cp.w	r8,511
8000461c:	e0 8b 00 13 	brhi	80004642 <_free_r+0xf2>
80004620:	a3 98       	lsr	r8,0x3
80004622:	f4 08 00 39 	add	r9,r10,r8<<0x3
80004626:	72 2b       	ld.w	r11,r9[0x8]
80004628:	8d 39       	st.w	r6[0xc],r9
8000462a:	8d 2b       	st.w	r6[0x8],r11
8000462c:	97 36       	st.w	r11[0xc],r6
8000462e:	93 26       	st.w	r9[0x8],r6
80004630:	a3 48       	asr	r8,0x2
80004632:	74 19       	ld.w	r9,r10[0x4]
80004634:	30 1b       	mov	r11,1
80004636:	f6 08 09 48 	lsl	r8,r11,r8
8000463a:	f3 e8 10 08 	or	r8,r9,r8
8000463e:	95 18       	st.w	r10[0x4],r8
80004640:	c4 b8       	rjmp	800046d6 <_free_r+0x186>
80004642:	f0 0b 16 09 	lsr	r11,r8,0x9
80004646:	58 4b       	cp.w	r11,4
80004648:	e0 8b 00 06 	brhi	80004654 <_free_r+0x104>
8000464c:	f0 0b 16 06 	lsr	r11,r8,0x6
80004650:	2c 8b       	sub	r11,-56
80004652:	c2 68       	rjmp	8000469e <_free_r+0x14e>
80004654:	59 4b       	cp.w	r11,20
80004656:	e0 8b 00 04 	brhi	8000465e <_free_r+0x10e>
8000465a:	2a 5b       	sub	r11,-91
8000465c:	c2 18       	rjmp	8000469e <_free_r+0x14e>
8000465e:	e0 4b 00 54 	cp.w	r11,84
80004662:	e0 8b 00 06 	brhi	8000466e <_free_r+0x11e>
80004666:	f0 0b 16 0c 	lsr	r11,r8,0xc
8000466a:	29 2b       	sub	r11,-110
8000466c:	c1 98       	rjmp	8000469e <_free_r+0x14e>
8000466e:	e0 4b 01 54 	cp.w	r11,340
80004672:	e0 8b 00 06 	brhi	8000467e <_free_r+0x12e>
80004676:	f0 0b 16 0f 	lsr	r11,r8,0xf
8000467a:	28 9b       	sub	r11,-119
8000467c:	c1 18       	rjmp	8000469e <_free_r+0x14e>
8000467e:	e0 4b 05 54 	cp.w	r11,1364
80004682:	e0 88 00 0b 	brls	80004698 <_free_r+0x148>
80004686:	37 eb       	mov	r11,126
80004688:	c0 b8       	rjmp	8000469e <_free_r+0x14e>
8000468a:	d7 03       	nop
8000468c:	00 00       	add	r0,r0
8000468e:	01 c8       	ld.ub	r8,r0[0x4]
80004690:	00 00       	add	r0,r0
80004692:	05 d0       	ld.ub	r0,r2[0x5]
80004694:	00 00       	add	r0,r0
80004696:	0c 68       	and	r8,r6
80004698:	f0 0b 16 12 	lsr	r11,r8,0x12
8000469c:	28 4b       	sub	r11,-124
8000469e:	f4 0b 00 3c 	add	r12,r10,r11<<0x3
800046a2:	78 29       	ld.w	r9,r12[0x8]
800046a4:	18 39       	cp.w	r9,r12
800046a6:	c0 e1       	brne	800046c2 <_free_r+0x172>
800046a8:	74 18       	ld.w	r8,r10[0x4]
800046aa:	a3 4b       	asr	r11,0x2
800046ac:	30 1c       	mov	r12,1
800046ae:	f8 0b 09 4b 	lsl	r11,r12,r11
800046b2:	f1 eb 10 0b 	or	r11,r8,r11
800046b6:	12 98       	mov	r8,r9
800046b8:	95 1b       	st.w	r10[0x4],r11
800046ba:	c0 a8       	rjmp	800046ce <_free_r+0x17e>
800046bc:	72 29       	ld.w	r9,r9[0x8]
800046be:	18 39       	cp.w	r9,r12
800046c0:	c0 60       	breq	800046cc <_free_r+0x17c>
800046c2:	72 1a       	ld.w	r10,r9[0x4]
800046c4:	e0 1a ff fc 	andl	r10,0xfffc
800046c8:	14 38       	cp.w	r8,r10
800046ca:	cf 93       	brcs	800046bc <_free_r+0x16c>
800046cc:	72 38       	ld.w	r8,r9[0xc]
800046ce:	8d 38       	st.w	r6[0xc],r8
800046d0:	8d 29       	st.w	r6[0x8],r9
800046d2:	93 36       	st.w	r9[0xc],r6
800046d4:	91 26       	st.w	r8[0x8],r6
800046d6:	0e 9c       	mov	r12,r7
800046d8:	e0 a0 03 ca 	rcall	80004e6c <__malloc_unlock>
800046dc:	d8 22       	popm	r4-r7,pc
800046de:	d7 03       	nop

800046e0 <__sfvwrite_r>:
800046e0:	d4 31       	pushm	r0-r7,lr
800046e2:	20 3d       	sub	sp,12
800046e4:	14 94       	mov	r4,r10
800046e6:	18 95       	mov	r5,r12
800046e8:	16 97       	mov	r7,r11
800046ea:	74 28       	ld.w	r8,r10[0x8]
800046ec:	58 08       	cp.w	r8,0
800046ee:	e0 80 01 45 	breq	80004978 <__sfvwrite_r+0x298>
800046f2:	96 68       	ld.sh	r8,r11[0xc]
800046f4:	ed b8 00 03 	bld	r8,0x3
800046f8:	c0 41       	brne	80004700 <__sfvwrite_r+0x20>
800046fa:	76 48       	ld.w	r8,r11[0x10]
800046fc:	58 08       	cp.w	r8,0
800046fe:	c0 c1       	brne	80004716 <__sfvwrite_r+0x36>
80004700:	0e 9b       	mov	r11,r7
80004702:	0a 9c       	mov	r12,r5
80004704:	e0 a0 05 e4 	rcall	800052cc <__swsetup_r>
80004708:	c0 70       	breq	80004716 <__sfvwrite_r+0x36>
8000470a:	8e 68       	ld.sh	r8,r7[0xc]
8000470c:	a7 a8       	sbr	r8,0x6
8000470e:	ae 68       	st.h	r7[0xc],r8
80004710:	30 98       	mov	r8,9
80004712:	8b 38       	st.w	r5[0xc],r8
80004714:	c3 09       	rjmp	80004974 <__sfvwrite_r+0x294>
80004716:	8e 63       	ld.sh	r3,r7[0xc]
80004718:	68 00       	ld.w	r0,r4[0x0]
8000471a:	06 96       	mov	r6,r3
8000471c:	e2 16 00 02 	andl	r6,0x2,COH
80004720:	c2 10       	breq	80004762 <__sfvwrite_r+0x82>
80004722:	30 03       	mov	r3,0
80004724:	e0 62 04 00 	mov	r2,1024
80004728:	06 96       	mov	r6,r3
8000472a:	c0 48       	rjmp	80004732 <__sfvwrite_r+0x52>
8000472c:	60 03       	ld.w	r3,r0[0x0]
8000472e:	60 16       	ld.w	r6,r0[0x4]
80004730:	2f 80       	sub	r0,-8
80004732:	58 06       	cp.w	r6,0
80004734:	cf c0       	breq	8000472c <__sfvwrite_r+0x4c>
80004736:	e0 46 04 00 	cp.w	r6,1024
8000473a:	ec 09 17 80 	movls	r9,r6
8000473e:	e4 09 17 b0 	movhi	r9,r2
80004742:	06 9a       	mov	r10,r3
80004744:	6e a8       	ld.w	r8,r7[0x28]
80004746:	6e 8b       	ld.w	r11,r7[0x20]
80004748:	0a 9c       	mov	r12,r5
8000474a:	5d 18       	icall	r8
8000474c:	18 16       	sub	r6,r12
8000474e:	58 0c       	cp.w	r12,0
80004750:	e0 8a 01 0f 	brle	8000496e <__sfvwrite_r+0x28e>
80004754:	68 28       	ld.w	r8,r4[0x8]
80004756:	18 18       	sub	r8,r12
80004758:	89 28       	st.w	r4[0x8],r8
8000475a:	e0 80 01 0f 	breq	80004978 <__sfvwrite_r+0x298>
8000475e:	18 03       	add	r3,r12
80004760:	ce 9b       	rjmp	80004732 <__sfvwrite_r+0x52>
80004762:	e7 d3 c0 01 	bfextu	r3,r3,0x0,0x1
80004766:	c0 70       	breq	80004774 <__sfvwrite_r+0x94>
80004768:	50 06       	stdsp	sp[0x0],r6
8000476a:	0c 93       	mov	r3,r6
8000476c:	0c 91       	mov	r1,r6
8000476e:	50 15       	stdsp	sp[0x4],r5
80004770:	08 92       	mov	r2,r4
80004772:	c9 e8       	rjmp	800048ae <__sfvwrite_r+0x1ce>
80004774:	06 96       	mov	r6,r3
80004776:	08 91       	mov	r1,r4
80004778:	c0 48       	rjmp	80004780 <__sfvwrite_r+0xa0>
8000477a:	60 03       	ld.w	r3,r0[0x0]
8000477c:	60 16       	ld.w	r6,r0[0x4]
8000477e:	2f 80       	sub	r0,-8
80004780:	58 06       	cp.w	r6,0
80004782:	cf c0       	breq	8000477a <__sfvwrite_r+0x9a>
80004784:	8e 68       	ld.sh	r8,r7[0xc]
80004786:	6e 24       	ld.w	r4,r7[0x8]
80004788:	10 99       	mov	r9,r8
8000478a:	e2 19 02 00 	andl	r9,0x200,COH
8000478e:	c5 50       	breq	80004838 <__sfvwrite_r+0x158>
80004790:	08 36       	cp.w	r6,r4
80004792:	c4 33       	brcs	80004818 <__sfvwrite_r+0x138>
80004794:	10 99       	mov	r9,r8
80004796:	e2 19 04 80 	andl	r9,0x480,COH
8000479a:	c3 f0       	breq	80004818 <__sfvwrite_r+0x138>
8000479c:	6e 4b       	ld.w	r11,r7[0x10]
8000479e:	6e 09       	ld.w	r9,r7[0x0]
800047a0:	16 19       	sub	r9,r11
800047a2:	50 09       	stdsp	sp[0x0],r9
800047a4:	6e 59       	ld.w	r9,r7[0x14]
800047a6:	10 9c       	mov	r12,r8
800047a8:	f2 09 00 1a 	add	r10,r9,r9<<0x1
800047ac:	30 28       	mov	r8,2
800047ae:	f4 08 0c 08 	divs	r8,r10,r8
800047b2:	fa e9 00 04 	st.d	sp[4],r8
800047b6:	10 94       	mov	r4,r8
800047b8:	40 09       	lddsp	r9,sp[0x0]
800047ba:	e2 1c 04 00 	andl	r12,0x400,COH
800047be:	2f f9       	sub	r9,-1
800047c0:	0c 09       	add	r9,r6
800047c2:	12 38       	cp.w	r8,r9
800047c4:	f2 04 17 30 	movlo	r4,r9
800047c8:	58 0c       	cp.w	r12,0
800047ca:	c1 00       	breq	800047ea <__sfvwrite_r+0x10a>
800047cc:	08 9b       	mov	r11,r4
800047ce:	0a 9c       	mov	r12,r5
800047d0:	c0 6d       	rcall	800049dc <_malloc_r>
800047d2:	18 92       	mov	r2,r12
800047d4:	c1 40       	breq	800047fc <__sfvwrite_r+0x11c>
800047d6:	40 0a       	lddsp	r10,sp[0x0]
800047d8:	6e 4b       	ld.w	r11,r7[0x10]
800047da:	fe b0 fb d5 	rcall	80003f84 <memcpy>
800047de:	8e 68       	ld.sh	r8,r7[0xc]
800047e0:	e0 18 fb 7f 	andl	r8,0xfb7f
800047e4:	a7 b8       	sbr	r8,0x7
800047e6:	ae 68       	st.h	r7[0xc],r8
800047e8:	c0 d8       	rjmp	80004802 <__sfvwrite_r+0x122>
800047ea:	08 9a       	mov	r10,r4
800047ec:	0a 9c       	mov	r12,r5
800047ee:	e0 a0 03 41 	rcall	80004e70 <_realloc_r>
800047f2:	18 92       	mov	r2,r12
800047f4:	c0 71       	brne	80004802 <__sfvwrite_r+0x122>
800047f6:	6e 4b       	ld.w	r11,r7[0x10]
800047f8:	0a 9c       	mov	r12,r5
800047fa:	ca be       	rcall	80004550 <_free_r>
800047fc:	30 c8       	mov	r8,12
800047fe:	8b 38       	st.w	r5[0xc],r8
80004800:	cb 78       	rjmp	8000496e <__sfvwrite_r+0x28e>
80004802:	40 0a       	lddsp	r10,sp[0x0]
80004804:	40 09       	lddsp	r9,sp[0x0]
80004806:	e8 0a 01 0a 	sub	r10,r4,r10
8000480a:	e4 09 00 08 	add	r8,r2,r9
8000480e:	8f 54       	st.w	r7[0x14],r4
80004810:	8f 2a       	st.w	r7[0x8],r10
80004812:	8f 08       	st.w	r7[0x0],r8
80004814:	8f 42       	st.w	r7[0x10],r2
80004816:	0c 94       	mov	r4,r6
80004818:	08 36       	cp.w	r6,r4
8000481a:	ec 04 17 30 	movlo	r4,r6
8000481e:	06 9b       	mov	r11,r3
80004820:	08 9a       	mov	r10,r4
80004822:	6e 0c       	ld.w	r12,r7[0x0]
80004824:	e0 a0 02 fd 	rcall	80004e1e <memmove>
80004828:	6e 08       	ld.w	r8,r7[0x0]
8000482a:	08 08       	add	r8,r4
8000482c:	8f 08       	st.w	r7[0x0],r8
8000482e:	6e 28       	ld.w	r8,r7[0x8]
80004830:	08 18       	sub	r8,r4
80004832:	0c 94       	mov	r4,r6
80004834:	8f 28       	st.w	r7[0x8],r8
80004836:	c3 08       	rjmp	80004896 <__sfvwrite_r+0x1b6>
80004838:	08 36       	cp.w	r6,r4
8000483a:	5f ba       	srhi	r10
8000483c:	6e 0c       	ld.w	r12,r7[0x0]
8000483e:	6e 48       	ld.w	r8,r7[0x10]
80004840:	10 3c       	cp.w	r12,r8
80004842:	5f b8       	srhi	r8
80004844:	f5 e8 00 08 	and	r8,r10,r8
80004848:	f2 08 18 00 	cp.b	r8,r9
8000484c:	c0 e0       	breq	80004868 <__sfvwrite_r+0x188>
8000484e:	06 9b       	mov	r11,r3
80004850:	08 9a       	mov	r10,r4
80004852:	e0 a0 02 e6 	rcall	80004e1e <memmove>
80004856:	6e 08       	ld.w	r8,r7[0x0]
80004858:	08 08       	add	r8,r4
8000485a:	0e 9b       	mov	r11,r7
8000485c:	8f 08       	st.w	r7[0x0],r8
8000485e:	0a 9c       	mov	r12,r5
80004860:	fe b0 fd 00 	rcall	80004260 <_fflush_r>
80004864:	c1 90       	breq	80004896 <__sfvwrite_r+0x1b6>
80004866:	c8 48       	rjmp	8000496e <__sfvwrite_r+0x28e>
80004868:	6e 59       	ld.w	r9,r7[0x14]
8000486a:	12 36       	cp.w	r6,r9
8000486c:	c0 a3       	brcs	80004880 <__sfvwrite_r+0x1a0>
8000486e:	6e a8       	ld.w	r8,r7[0x28]
80004870:	06 9a       	mov	r10,r3
80004872:	6e 8b       	ld.w	r11,r7[0x20]
80004874:	0a 9c       	mov	r12,r5
80004876:	5d 18       	icall	r8
80004878:	18 94       	mov	r4,r12
8000487a:	e0 89 00 0e 	brgt	80004896 <__sfvwrite_r+0x1b6>
8000487e:	c7 88       	rjmp	8000496e <__sfvwrite_r+0x28e>
80004880:	0c 9a       	mov	r10,r6
80004882:	06 9b       	mov	r11,r3
80004884:	e0 a0 02 cd 	rcall	80004e1e <memmove>
80004888:	6e 08       	ld.w	r8,r7[0x0]
8000488a:	0c 08       	add	r8,r6
8000488c:	0c 94       	mov	r4,r6
8000488e:	8f 08       	st.w	r7[0x0],r8
80004890:	6e 28       	ld.w	r8,r7[0x8]
80004892:	0c 18       	sub	r8,r6
80004894:	8f 28       	st.w	r7[0x8],r8
80004896:	62 28       	ld.w	r8,r1[0x8]
80004898:	08 18       	sub	r8,r4
8000489a:	83 28       	st.w	r1[0x8],r8
8000489c:	c6 e0       	breq	80004978 <__sfvwrite_r+0x298>
8000489e:	08 16       	sub	r6,r4
800048a0:	08 03       	add	r3,r4
800048a2:	c6 fb       	rjmp	80004780 <__sfvwrite_r+0xa0>
800048a4:	60 03       	ld.w	r3,r0[0x0]
800048a6:	60 11       	ld.w	r1,r0[0x4]
800048a8:	30 08       	mov	r8,0
800048aa:	2f 80       	sub	r0,-8
800048ac:	50 08       	stdsp	sp[0x0],r8
800048ae:	58 01       	cp.w	r1,0
800048b0:	cf a0       	breq	800048a4 <__sfvwrite_r+0x1c4>
800048b2:	40 0a       	lddsp	r10,sp[0x0]
800048b4:	58 0a       	cp.w	r10,0
800048b6:	c1 51       	brne	800048e0 <__sfvwrite_r+0x200>
800048b8:	e2 c6 ff ff 	sub	r6,r1,-1
800048bc:	02 9a       	mov	r10,r1
800048be:	30 ab       	mov	r11,10
800048c0:	06 9c       	mov	r12,r3
800048c2:	e0 a0 02 a3 	rcall	80004e08 <memchr>
800048c6:	f8 c8 ff ff 	sub	r8,r12,-1
800048ca:	58 0c       	cp.w	r12,0
800048cc:	f1 d3 e1 16 	subne	r6,r8,r3
800048d0:	f9 b9 01 01 	movne	r9,1
800048d4:	fb f9 1a 00 	st.wne	sp[0x0],r9
800048d8:	f9 b8 00 01 	moveq	r8,1
800048dc:	fb f8 0a 00 	st.weq	sp[0x0],r8
800048e0:	02 36       	cp.w	r6,r1
800048e2:	ec 04 17 80 	movls	r4,r6
800048e6:	e2 04 17 b0 	movhi	r4,r1
800048ea:	6e 59       	ld.w	r9,r7[0x14]
800048ec:	6e 25       	ld.w	r5,r7[0x8]
800048ee:	f2 05 00 05 	add	r5,r9,r5
800048f2:	0a 34       	cp.w	r4,r5
800048f4:	5f 9a       	srgt	r10
800048f6:	6e 0c       	ld.w	r12,r7[0x0]
800048f8:	6e 48       	ld.w	r8,r7[0x10]
800048fa:	10 3c       	cp.w	r12,r8
800048fc:	5f b8       	srhi	r8
800048fe:	f5 e8 00 08 	and	r8,r10,r8
80004902:	30 0a       	mov	r10,0
80004904:	f4 08 18 00 	cp.b	r8,r10
80004908:	c0 e0       	breq	80004924 <__sfvwrite_r+0x244>
8000490a:	06 9b       	mov	r11,r3
8000490c:	0a 9a       	mov	r10,r5
8000490e:	e0 a0 02 88 	rcall	80004e1e <memmove>
80004912:	6e 08       	ld.w	r8,r7[0x0]
80004914:	0a 08       	add	r8,r5
80004916:	0e 9b       	mov	r11,r7
80004918:	8f 08       	st.w	r7[0x0],r8
8000491a:	40 1c       	lddsp	r12,sp[0x4]
8000491c:	fe b0 fc a2 	rcall	80004260 <_fflush_r>
80004920:	c1 80       	breq	80004950 <__sfvwrite_r+0x270>
80004922:	c2 68       	rjmp	8000496e <__sfvwrite_r+0x28e>
80004924:	12 34       	cp.w	r4,r9
80004926:	c0 a5       	brlt	8000493a <__sfvwrite_r+0x25a>
80004928:	6e a8       	ld.w	r8,r7[0x28]
8000492a:	06 9a       	mov	r10,r3
8000492c:	6e 8b       	ld.w	r11,r7[0x20]
8000492e:	40 1c       	lddsp	r12,sp[0x4]
80004930:	5d 18       	icall	r8
80004932:	18 95       	mov	r5,r12
80004934:	e0 89 00 0e 	brgt	80004950 <__sfvwrite_r+0x270>
80004938:	c1 b8       	rjmp	8000496e <__sfvwrite_r+0x28e>
8000493a:	08 9a       	mov	r10,r4
8000493c:	06 9b       	mov	r11,r3
8000493e:	e0 a0 02 70 	rcall	80004e1e <memmove>
80004942:	6e 08       	ld.w	r8,r7[0x0]
80004944:	08 08       	add	r8,r4
80004946:	08 95       	mov	r5,r4
80004948:	8f 08       	st.w	r7[0x0],r8
8000494a:	6e 28       	ld.w	r8,r7[0x8]
8000494c:	08 18       	sub	r8,r4
8000494e:	8f 28       	st.w	r7[0x8],r8
80004950:	0a 16       	sub	r6,r5
80004952:	c0 71       	brne	80004960 <__sfvwrite_r+0x280>
80004954:	0e 9b       	mov	r11,r7
80004956:	40 1c       	lddsp	r12,sp[0x4]
80004958:	fe b0 fc 84 	rcall	80004260 <_fflush_r>
8000495c:	c0 91       	brne	8000496e <__sfvwrite_r+0x28e>
8000495e:	50 06       	stdsp	sp[0x0],r6
80004960:	64 28       	ld.w	r8,r2[0x8]
80004962:	0a 18       	sub	r8,r5
80004964:	85 28       	st.w	r2[0x8],r8
80004966:	c0 90       	breq	80004978 <__sfvwrite_r+0x298>
80004968:	0a 11       	sub	r1,r5
8000496a:	0a 03       	add	r3,r5
8000496c:	ca 1b       	rjmp	800048ae <__sfvwrite_r+0x1ce>
8000496e:	8e 68       	ld.sh	r8,r7[0xc]
80004970:	a7 a8       	sbr	r8,0x6
80004972:	ae 68       	st.h	r7[0xc],r8
80004974:	3f fc       	mov	r12,-1
80004976:	c0 28       	rjmp	8000497a <__sfvwrite_r+0x29a>
80004978:	30 0c       	mov	r12,0
8000497a:	2f dd       	sub	sp,-12
8000497c:	d8 32       	popm	r0-r7,pc
8000497e:	d7 03       	nop

80004980 <_fwalk>:
80004980:	d4 31       	pushm	r0-r7,lr
80004982:	30 05       	mov	r5,0
80004984:	16 91       	mov	r1,r11
80004986:	f8 c7 ff 28 	sub	r7,r12,-216
8000498a:	0a 92       	mov	r2,r5
8000498c:	fe b0 fc f2 	rcall	80004370 <__sfp_lock_acquire>
80004990:	3f f3       	mov	r3,-1
80004992:	c1 68       	rjmp	800049be <_fwalk+0x3e>
80004994:	6e 26       	ld.w	r6,r7[0x8]
80004996:	6e 14       	ld.w	r4,r7[0x4]
80004998:	2f 46       	sub	r6,-12
8000499a:	c0 c8       	rjmp	800049b2 <_fwalk+0x32>
8000499c:	8c 08       	ld.sh	r8,r6[0x0]
8000499e:	e4 08 19 00 	cp.h	r8,r2
800049a2:	c0 70       	breq	800049b0 <_fwalk+0x30>
800049a4:	8c 18       	ld.sh	r8,r6[0x2]
800049a6:	e6 08 19 00 	cp.h	r8,r3
800049aa:	c0 30       	breq	800049b0 <_fwalk+0x30>
800049ac:	5d 11       	icall	r1
800049ae:	18 45       	or	r5,r12
800049b0:	2a 46       	sub	r6,-92
800049b2:	20 14       	sub	r4,1
800049b4:	ec cc 00 0c 	sub	r12,r6,12
800049b8:	58 04       	cp.w	r4,0
800049ba:	cf 14       	brge	8000499c <_fwalk+0x1c>
800049bc:	6e 07       	ld.w	r7,r7[0x0]
800049be:	58 07       	cp.w	r7,0
800049c0:	ce a1       	brne	80004994 <_fwalk+0x14>
800049c2:	fe b0 fc d8 	rcall	80004372 <__sfp_lock_release>
800049c6:	0a 9c       	mov	r12,r5
800049c8:	d8 32       	popm	r0-r7,pc
800049ca:	d7 03       	nop

800049cc <malloc>:
800049cc:	d4 01       	pushm	lr
800049ce:	48 38       	lddpc	r8,800049d8 <malloc+0xc>
800049d0:	18 9b       	mov	r11,r12
800049d2:	70 0c       	ld.w	r12,r8[0x0]
800049d4:	c0 4c       	rcall	800049dc <_malloc_r>
800049d6:	d8 02       	popm	pc
800049d8:	00 00       	add	r0,r0
800049da:	01 c4       	ld.ub	r4,r0[0x4]

800049dc <_malloc_r>:
800049dc:	d4 31       	pushm	r0-r7,lr
800049de:	f6 c8 ff f5 	sub	r8,r11,-11
800049e2:	18 95       	mov	r5,r12
800049e4:	10 97       	mov	r7,r8
800049e6:	e0 17 ff f8 	andl	r7,0xfff8
800049ea:	59 68       	cp.w	r8,22
800049ec:	f9 b7 08 10 	movls	r7,16
800049f0:	16 37       	cp.w	r7,r11
800049f2:	5f 38       	srlo	r8
800049f4:	f1 e7 13 f8 	or	r8,r8,r7>>0x1f
800049f8:	c0 50       	breq	80004a02 <_malloc_r+0x26>
800049fa:	30 c8       	mov	r8,12
800049fc:	99 38       	st.w	r12[0xc],r8
800049fe:	e0 8f 01 eb 	bral	80004dd4 <_malloc_r+0x3f8>
80004a02:	e0 a0 02 34 	rcall	80004e6a <__malloc_lock>
80004a06:	e0 47 01 f7 	cp.w	r7,503
80004a0a:	e0 8b 00 1c 	brhi	80004a42 <_malloc_r+0x66>
80004a0e:	ee 03 16 03 	lsr	r3,r7,0x3
80004a12:	4c c8       	lddpc	r8,80004b40 <_malloc_r+0x164>
80004a14:	f0 03 00 38 	add	r8,r8,r3<<0x3
80004a18:	70 36       	ld.w	r6,r8[0xc]
80004a1a:	10 36       	cp.w	r6,r8
80004a1c:	c0 61       	brne	80004a28 <_malloc_r+0x4c>
80004a1e:	ec c8 ff f8 	sub	r8,r6,-8
80004a22:	70 36       	ld.w	r6,r8[0xc]
80004a24:	10 36       	cp.w	r6,r8
80004a26:	c0 c0       	breq	80004a3e <_malloc_r+0x62>
80004a28:	6c 18       	ld.w	r8,r6[0x4]
80004a2a:	e0 18 ff fc 	andl	r8,0xfffc
80004a2e:	6c 3a       	ld.w	r10,r6[0xc]
80004a30:	ec 08 00 09 	add	r9,r6,r8
80004a34:	0a 9c       	mov	r12,r5
80004a36:	6c 28       	ld.w	r8,r6[0x8]
80004a38:	95 28       	st.w	r10[0x8],r8
80004a3a:	91 3a       	st.w	r8[0xc],r10
80004a3c:	c4 68       	rjmp	80004ac8 <_malloc_r+0xec>
80004a3e:	2f e3       	sub	r3,-2
80004a40:	c4 c8       	rjmp	80004ad8 <_malloc_r+0xfc>
80004a42:	ee 03 16 09 	lsr	r3,r7,0x9
80004a46:	c0 41       	brne	80004a4e <_malloc_r+0x72>
80004a48:	ee 03 16 03 	lsr	r3,r7,0x3
80004a4c:	c2 68       	rjmp	80004a98 <_malloc_r+0xbc>
80004a4e:	58 43       	cp.w	r3,4
80004a50:	e0 8b 00 06 	brhi	80004a5c <_malloc_r+0x80>
80004a54:	ee 03 16 06 	lsr	r3,r7,0x6
80004a58:	2c 83       	sub	r3,-56
80004a5a:	c1 f8       	rjmp	80004a98 <_malloc_r+0xbc>
80004a5c:	59 43       	cp.w	r3,20
80004a5e:	e0 8b 00 04 	brhi	80004a66 <_malloc_r+0x8a>
80004a62:	2a 53       	sub	r3,-91
80004a64:	c1 a8       	rjmp	80004a98 <_malloc_r+0xbc>
80004a66:	e0 43 00 54 	cp.w	r3,84
80004a6a:	e0 8b 00 06 	brhi	80004a76 <_malloc_r+0x9a>
80004a6e:	ee 03 16 0c 	lsr	r3,r7,0xc
80004a72:	29 23       	sub	r3,-110
80004a74:	c1 28       	rjmp	80004a98 <_malloc_r+0xbc>
80004a76:	e0 43 01 54 	cp.w	r3,340
80004a7a:	e0 8b 00 06 	brhi	80004a86 <_malloc_r+0xaa>
80004a7e:	ee 03 16 0f 	lsr	r3,r7,0xf
80004a82:	28 93       	sub	r3,-119
80004a84:	c0 a8       	rjmp	80004a98 <_malloc_r+0xbc>
80004a86:	e0 43 05 54 	cp.w	r3,1364
80004a8a:	e0 88 00 04 	brls	80004a92 <_malloc_r+0xb6>
80004a8e:	37 e3       	mov	r3,126
80004a90:	c0 48       	rjmp	80004a98 <_malloc_r+0xbc>
80004a92:	ee 03 16 12 	lsr	r3,r7,0x12
80004a96:	28 43       	sub	r3,-124
80004a98:	4a aa       	lddpc	r10,80004b40 <_malloc_r+0x164>
80004a9a:	f4 03 00 3a 	add	r10,r10,r3<<0x3
80004a9e:	74 36       	ld.w	r6,r10[0xc]
80004aa0:	c1 98       	rjmp	80004ad2 <_malloc_r+0xf6>
80004aa2:	6c 19       	ld.w	r9,r6[0x4]
80004aa4:	e0 19 ff fc 	andl	r9,0xfffc
80004aa8:	f2 07 01 0b 	sub	r11,r9,r7
80004aac:	58 fb       	cp.w	r11,15
80004aae:	e0 8a 00 04 	brle	80004ab6 <_malloc_r+0xda>
80004ab2:	20 13       	sub	r3,1
80004ab4:	c1 18       	rjmp	80004ad6 <_malloc_r+0xfa>
80004ab6:	6c 38       	ld.w	r8,r6[0xc]
80004ab8:	58 0b       	cp.w	r11,0
80004aba:	c0 b5       	brlt	80004ad0 <_malloc_r+0xf4>
80004abc:	6c 2a       	ld.w	r10,r6[0x8]
80004abe:	ec 09 00 09 	add	r9,r6,r9
80004ac2:	0a 9c       	mov	r12,r5
80004ac4:	91 2a       	st.w	r8[0x8],r10
80004ac6:	95 38       	st.w	r10[0xc],r8
80004ac8:	72 18       	ld.w	r8,r9[0x4]
80004aca:	a1 a8       	sbr	r8,0x0
80004acc:	93 18       	st.w	r9[0x4],r8
80004ace:	cb a8       	rjmp	80004c42 <_malloc_r+0x266>
80004ad0:	10 96       	mov	r6,r8
80004ad2:	14 36       	cp.w	r6,r10
80004ad4:	ce 71       	brne	80004aa2 <_malloc_r+0xc6>
80004ad6:	2f f3       	sub	r3,-1
80004ad8:	49 aa       	lddpc	r10,80004b40 <_malloc_r+0x164>
80004ada:	f4 cc ff f8 	sub	r12,r10,-8
80004ade:	78 26       	ld.w	r6,r12[0x8]
80004ae0:	18 36       	cp.w	r6,r12
80004ae2:	c6 c0       	breq	80004bba <_malloc_r+0x1de>
80004ae4:	6c 19       	ld.w	r9,r6[0x4]
80004ae6:	e0 19 ff fc 	andl	r9,0xfffc
80004aea:	f2 07 01 08 	sub	r8,r9,r7
80004aee:	58 f8       	cp.w	r8,15
80004af0:	e0 89 00 8e 	brgt	80004c0c <_malloc_r+0x230>
80004af4:	99 3c       	st.w	r12[0xc],r12
80004af6:	99 2c       	st.w	r12[0x8],r12
80004af8:	58 08       	cp.w	r8,0
80004afa:	c0 55       	brlt	80004b04 <_malloc_r+0x128>
80004afc:	ec 09 00 09 	add	r9,r6,r9
80004b00:	0a 9c       	mov	r12,r5
80004b02:	ce 3b       	rjmp	80004ac8 <_malloc_r+0xec>
80004b04:	e0 49 01 ff 	cp.w	r9,511
80004b08:	e0 8b 00 13 	brhi	80004b2e <_malloc_r+0x152>
80004b0c:	a3 99       	lsr	r9,0x3
80004b0e:	f4 09 00 38 	add	r8,r10,r9<<0x3
80004b12:	70 2b       	ld.w	r11,r8[0x8]
80004b14:	8d 38       	st.w	r6[0xc],r8
80004b16:	8d 2b       	st.w	r6[0x8],r11
80004b18:	97 36       	st.w	r11[0xc],r6
80004b1a:	91 26       	st.w	r8[0x8],r6
80004b1c:	a3 49       	asr	r9,0x2
80004b1e:	74 18       	ld.w	r8,r10[0x4]
80004b20:	30 1b       	mov	r11,1
80004b22:	f6 09 09 49 	lsl	r9,r11,r9
80004b26:	f1 e9 10 09 	or	r9,r8,r9
80004b2a:	95 19       	st.w	r10[0x4],r9
80004b2c:	c4 78       	rjmp	80004bba <_malloc_r+0x1de>
80004b2e:	f2 0a 16 09 	lsr	r10,r9,0x9
80004b32:	58 4a       	cp.w	r10,4
80004b34:	e0 8b 00 08 	brhi	80004b44 <_malloc_r+0x168>
80004b38:	f2 0a 16 06 	lsr	r10,r9,0x6
80004b3c:	2c 8a       	sub	r10,-56
80004b3e:	c2 18       	rjmp	80004b80 <_malloc_r+0x1a4>
80004b40:	00 00       	add	r0,r0
80004b42:	01 c8       	ld.ub	r8,r0[0x4]
80004b44:	59 4a       	cp.w	r10,20
80004b46:	e0 8b 00 04 	brhi	80004b4e <_malloc_r+0x172>
80004b4a:	2a 5a       	sub	r10,-91
80004b4c:	c1 a8       	rjmp	80004b80 <_malloc_r+0x1a4>
80004b4e:	e0 4a 00 54 	cp.w	r10,84
80004b52:	e0 8b 00 06 	brhi	80004b5e <_malloc_r+0x182>
80004b56:	f2 0a 16 0c 	lsr	r10,r9,0xc
80004b5a:	29 2a       	sub	r10,-110
80004b5c:	c1 28       	rjmp	80004b80 <_malloc_r+0x1a4>
80004b5e:	e0 4a 01 54 	cp.w	r10,340
80004b62:	e0 8b 00 06 	brhi	80004b6e <_malloc_r+0x192>
80004b66:	f2 0a 16 0f 	lsr	r10,r9,0xf
80004b6a:	28 9a       	sub	r10,-119
80004b6c:	c0 a8       	rjmp	80004b80 <_malloc_r+0x1a4>
80004b6e:	e0 4a 05 54 	cp.w	r10,1364
80004b72:	e0 88 00 04 	brls	80004b7a <_malloc_r+0x19e>
80004b76:	37 ea       	mov	r10,126
80004b78:	c0 48       	rjmp	80004b80 <_malloc_r+0x1a4>
80004b7a:	f2 0a 16 12 	lsr	r10,r9,0x12
80004b7e:	28 4a       	sub	r10,-124
80004b80:	4c 7b       	lddpc	r11,80004c9c <_malloc_r+0x2c0>
80004b82:	f6 0a 00 34 	add	r4,r11,r10<<0x3
80004b86:	68 28       	ld.w	r8,r4[0x8]
80004b88:	08 38       	cp.w	r8,r4
80004b8a:	c0 e1       	brne	80004ba6 <_malloc_r+0x1ca>
80004b8c:	76 19       	ld.w	r9,r11[0x4]
80004b8e:	a3 4a       	asr	r10,0x2
80004b90:	30 1e       	mov	lr,1
80004b92:	fc 0a 09 4a 	lsl	r10,lr,r10
80004b96:	f3 ea 10 0a 	or	r10,r9,r10
80004b9a:	10 99       	mov	r9,r8
80004b9c:	97 1a       	st.w	r11[0x4],r10
80004b9e:	c0 a8       	rjmp	80004bb2 <_malloc_r+0x1d6>
80004ba0:	70 28       	ld.w	r8,r8[0x8]
80004ba2:	08 38       	cp.w	r8,r4
80004ba4:	c0 60       	breq	80004bb0 <_malloc_r+0x1d4>
80004ba6:	70 1a       	ld.w	r10,r8[0x4]
80004ba8:	e0 1a ff fc 	andl	r10,0xfffc
80004bac:	14 39       	cp.w	r9,r10
80004bae:	cf 93       	brcs	80004ba0 <_malloc_r+0x1c4>
80004bb0:	70 39       	ld.w	r9,r8[0xc]
80004bb2:	8d 39       	st.w	r6[0xc],r9
80004bb4:	8d 28       	st.w	r6[0x8],r8
80004bb6:	91 36       	st.w	r8[0xc],r6
80004bb8:	93 26       	st.w	r9[0x8],r6
80004bba:	e6 08 14 02 	asr	r8,r3,0x2
80004bbe:	30 1b       	mov	r11,1
80004bc0:	4b 74       	lddpc	r4,80004c9c <_malloc_r+0x2c0>
80004bc2:	f6 08 09 4b 	lsl	r11,r11,r8
80004bc6:	68 18       	ld.w	r8,r4[0x4]
80004bc8:	10 3b       	cp.w	r11,r8
80004bca:	e0 8b 00 6b 	brhi	80004ca0 <_malloc_r+0x2c4>
80004bce:	f7 e8 00 09 	and	r9,r11,r8
80004bd2:	c0 b1       	brne	80004be8 <_malloc_r+0x20c>
80004bd4:	e0 13 ff fc 	andl	r3,0xfffc
80004bd8:	a1 7b       	lsl	r11,0x1
80004bda:	2f c3       	sub	r3,-4
80004bdc:	c0 38       	rjmp	80004be2 <_malloc_r+0x206>
80004bde:	2f c3       	sub	r3,-4
80004be0:	a1 7b       	lsl	r11,0x1
80004be2:	f7 e8 00 09 	and	r9,r11,r8
80004be6:	cf c0       	breq	80004bde <_malloc_r+0x202>
80004be8:	e8 03 00 3e 	add	lr,r4,r3<<0x3
80004bec:	06 92       	mov	r2,r3
80004bee:	1c 91       	mov	r1,lr
80004bf0:	62 36       	ld.w	r6,r1[0xc]
80004bf2:	c2 d8       	rjmp	80004c4c <_malloc_r+0x270>
80004bf4:	6c 1a       	ld.w	r10,r6[0x4]
80004bf6:	e0 1a ff fc 	andl	r10,0xfffc
80004bfa:	f4 07 01 08 	sub	r8,r10,r7
80004bfe:	58 f8       	cp.w	r8,15
80004c00:	e0 8a 00 15 	brle	80004c2a <_malloc_r+0x24e>
80004c04:	6c 3a       	ld.w	r10,r6[0xc]
80004c06:	6c 29       	ld.w	r9,r6[0x8]
80004c08:	95 29       	st.w	r10[0x8],r9
80004c0a:	93 3a       	st.w	r9[0xc],r10
80004c0c:	0e 99       	mov	r9,r7
80004c0e:	ec 07 00 07 	add	r7,r6,r7
80004c12:	a1 a9       	sbr	r9,0x0
80004c14:	99 37       	st.w	r12[0xc],r7
80004c16:	99 27       	st.w	r12[0x8],r7
80004c18:	8d 19       	st.w	r6[0x4],r9
80004c1a:	ee 08 09 08 	st.w	r7[r8],r8
80004c1e:	8f 2c       	st.w	r7[0x8],r12
80004c20:	8f 3c       	st.w	r7[0xc],r12
80004c22:	a1 a8       	sbr	r8,0x0
80004c24:	0a 9c       	mov	r12,r5
80004c26:	8f 18       	st.w	r7[0x4],r8
80004c28:	c0 d8       	rjmp	80004c42 <_malloc_r+0x266>
80004c2a:	6c 39       	ld.w	r9,r6[0xc]
80004c2c:	58 08       	cp.w	r8,0
80004c2e:	c0 e5       	brlt	80004c4a <_malloc_r+0x26e>
80004c30:	ec 0a 00 0a 	add	r10,r6,r10
80004c34:	74 18       	ld.w	r8,r10[0x4]
80004c36:	a1 a8       	sbr	r8,0x0
80004c38:	0a 9c       	mov	r12,r5
80004c3a:	95 18       	st.w	r10[0x4],r8
80004c3c:	6c 28       	ld.w	r8,r6[0x8]
80004c3e:	93 28       	st.w	r9[0x8],r8
80004c40:	91 39       	st.w	r8[0xc],r9
80004c42:	c1 5d       	rcall	80004e6c <__malloc_unlock>
80004c44:	ec cc ff f8 	sub	r12,r6,-8
80004c48:	d8 32       	popm	r0-r7,pc
80004c4a:	12 96       	mov	r6,r9
80004c4c:	02 36       	cp.w	r6,r1
80004c4e:	cd 31       	brne	80004bf4 <_malloc_r+0x218>
80004c50:	2f f2       	sub	r2,-1
80004c52:	f1 d2 c0 02 	bfextu	r8,r2,0x0,0x2
80004c56:	c0 30       	breq	80004c5c <_malloc_r+0x280>
80004c58:	2f 81       	sub	r1,-8
80004c5a:	cc bb       	rjmp	80004bf0 <_malloc_r+0x214>
80004c5c:	1c 98       	mov	r8,lr
80004c5e:	f3 d3 c0 02 	bfextu	r9,r3,0x0,0x2
80004c62:	c0 81       	brne	80004c72 <_malloc_r+0x296>
80004c64:	68 19       	ld.w	r9,r4[0x4]
80004c66:	f6 08 11 ff 	rsub	r8,r11,-1
80004c6a:	f3 e8 00 08 	and	r8,r9,r8
80004c6e:	89 18       	st.w	r4[0x4],r8
80004c70:	c0 78       	rjmp	80004c7e <_malloc_r+0x2a2>
80004c72:	f0 c9 00 08 	sub	r9,r8,8
80004c76:	20 13       	sub	r3,1
80004c78:	70 08       	ld.w	r8,r8[0x0]
80004c7a:	12 38       	cp.w	r8,r9
80004c7c:	cf 10       	breq	80004c5e <_malloc_r+0x282>
80004c7e:	a1 7b       	lsl	r11,0x1
80004c80:	68 18       	ld.w	r8,r4[0x4]
80004c82:	10 3b       	cp.w	r11,r8
80004c84:	e0 8b 00 0e 	brhi	80004ca0 <_malloc_r+0x2c4>
80004c88:	58 0b       	cp.w	r11,0
80004c8a:	c0 b0       	breq	80004ca0 <_malloc_r+0x2c4>
80004c8c:	04 93       	mov	r3,r2
80004c8e:	c0 38       	rjmp	80004c94 <_malloc_r+0x2b8>
80004c90:	2f c3       	sub	r3,-4
80004c92:	a1 7b       	lsl	r11,0x1
80004c94:	f7 e8 00 09 	and	r9,r11,r8
80004c98:	ca 81       	brne	80004be8 <_malloc_r+0x20c>
80004c9a:	cf bb       	rjmp	80004c90 <_malloc_r+0x2b4>
80004c9c:	00 00       	add	r0,r0
80004c9e:	01 c8       	ld.ub	r8,r0[0x4]
80004ca0:	68 23       	ld.w	r3,r4[0x8]
80004ca2:	66 12       	ld.w	r2,r3[0x4]
80004ca4:	e0 12 ff fc 	andl	r2,0xfffc
80004ca8:	0e 32       	cp.w	r2,r7
80004caa:	5f 39       	srlo	r9
80004cac:	e4 07 01 08 	sub	r8,r2,r7
80004cb0:	58 f8       	cp.w	r8,15
80004cb2:	5f aa       	srle	r10
80004cb4:	f5 e9 10 09 	or	r9,r10,r9
80004cb8:	e0 80 00 9a 	breq	80004dec <_malloc_r+0x410>
80004cbc:	4c 78       	lddpc	r8,80004dd8 <_malloc_r+0x3fc>
80004cbe:	70 01       	ld.w	r1,r8[0x0]
80004cc0:	4c 78       	lddpc	r8,80004ddc <_malloc_r+0x400>
80004cc2:	2f 01       	sub	r1,-16
80004cc4:	70 08       	ld.w	r8,r8[0x0]
80004cc6:	0e 01       	add	r1,r7
80004cc8:	5b f8       	cp.w	r8,-1
80004cca:	c0 40       	breq	80004cd2 <_malloc_r+0x2f6>
80004ccc:	28 11       	sub	r1,-127
80004cce:	e0 11 ff 80 	andl	r1,0xff80
80004cd2:	02 9b       	mov	r11,r1
80004cd4:	0a 9c       	mov	r12,r5
80004cd6:	e0 a0 02 2b 	rcall	8000512c <_sbrk_r>
80004cda:	18 96       	mov	r6,r12
80004cdc:	5b fc       	cp.w	r12,-1
80004cde:	c6 d0       	breq	80004db8 <_malloc_r+0x3dc>
80004ce0:	e6 02 00 08 	add	r8,r3,r2
80004ce4:	10 3c       	cp.w	r12,r8
80004ce6:	c0 32       	brcc	80004cec <_malloc_r+0x310>
80004ce8:	08 33       	cp.w	r3,r4
80004cea:	c6 71       	brne	80004db8 <_malloc_r+0x3dc>
80004cec:	4b da       	lddpc	r10,80004de0 <_malloc_r+0x404>
80004cee:	74 09       	ld.w	r9,r10[0x0]
80004cf0:	e2 09 00 09 	add	r9,r1,r9
80004cf4:	95 09       	st.w	r10[0x0],r9
80004cf6:	10 36       	cp.w	r6,r8
80004cf8:	c0 a1       	brne	80004d0c <_malloc_r+0x330>
80004cfa:	f5 d6 c0 07 	bfextu	r10,r6,0x0,0x7
80004cfe:	c0 71       	brne	80004d0c <_malloc_r+0x330>
80004d00:	e2 02 00 02 	add	r2,r1,r2
80004d04:	68 28       	ld.w	r8,r4[0x8]
80004d06:	a1 a2       	sbr	r2,0x0
80004d08:	91 12       	st.w	r8[0x4],r2
80004d0a:	c4 b8       	rjmp	80004da0 <_malloc_r+0x3c4>
80004d0c:	4b 4a       	lddpc	r10,80004ddc <_malloc_r+0x400>
80004d0e:	74 0b       	ld.w	r11,r10[0x0]
80004d10:	5b fb       	cp.w	r11,-1
80004d12:	c0 31       	brne	80004d18 <_malloc_r+0x33c>
80004d14:	95 06       	st.w	r10[0x0],r6
80004d16:	c0 68       	rjmp	80004d22 <_malloc_r+0x346>
80004d18:	ec 09 00 09 	add	r9,r6,r9
80004d1c:	4b 1a       	lddpc	r10,80004de0 <_malloc_r+0x404>
80004d1e:	10 19       	sub	r9,r8
80004d20:	95 09       	st.w	r10[0x0],r9
80004d22:	f1 d6 c0 03 	bfextu	r8,r6,0x0,0x3
80004d26:	f0 09 11 08 	rsub	r9,r8,8
80004d2a:	58 08       	cp.w	r8,0
80004d2c:	f2 08 17 10 	movne	r8,r9
80004d30:	ed d8 e1 06 	addne	r6,r6,r8
80004d34:	28 08       	sub	r8,-128
80004d36:	ec 01 00 01 	add	r1,r6,r1
80004d3a:	0a 9c       	mov	r12,r5
80004d3c:	e3 d1 c0 07 	bfextu	r1,r1,0x0,0x7
80004d40:	f0 01 01 01 	sub	r1,r8,r1
80004d44:	02 9b       	mov	r11,r1
80004d46:	cf 3d       	rcall	8000512c <_sbrk_r>
80004d48:	4a 68       	lddpc	r8,80004de0 <_malloc_r+0x404>
80004d4a:	5b fc       	cp.w	r12,-1
80004d4c:	ec 0c 17 00 	moveq	r12,r6
80004d50:	f9 b1 00 00 	moveq	r1,0
80004d54:	70 09       	ld.w	r9,r8[0x0]
80004d56:	0c 1c       	sub	r12,r6
80004d58:	89 26       	st.w	r4[0x8],r6
80004d5a:	02 0c       	add	r12,r1
80004d5c:	12 01       	add	r1,r9
80004d5e:	a1 ac       	sbr	r12,0x0
80004d60:	91 01       	st.w	r8[0x0],r1
80004d62:	8d 1c       	st.w	r6[0x4],r12
80004d64:	08 33       	cp.w	r3,r4
80004d66:	c1 d0       	breq	80004da0 <_malloc_r+0x3c4>
80004d68:	58 f2       	cp.w	r2,15
80004d6a:	e0 8b 00 05 	brhi	80004d74 <_malloc_r+0x398>
80004d6e:	30 18       	mov	r8,1
80004d70:	8d 18       	st.w	r6[0x4],r8
80004d72:	c2 38       	rjmp	80004db8 <_malloc_r+0x3dc>
80004d74:	30 59       	mov	r9,5
80004d76:	20 c2       	sub	r2,12
80004d78:	e0 12 ff f8 	andl	r2,0xfff8
80004d7c:	e6 02 00 08 	add	r8,r3,r2
80004d80:	91 29       	st.w	r8[0x8],r9
80004d82:	91 19       	st.w	r8[0x4],r9
80004d84:	66 18       	ld.w	r8,r3[0x4]
80004d86:	f1 d8 c0 01 	bfextu	r8,r8,0x0,0x1
80004d8a:	e5 e8 10 08 	or	r8,r2,r8
80004d8e:	87 18       	st.w	r3[0x4],r8
80004d90:	58 f2       	cp.w	r2,15
80004d92:	e0 88 00 07 	brls	80004da0 <_malloc_r+0x3c4>
80004d96:	e6 cb ff f8 	sub	r11,r3,-8
80004d9a:	0a 9c       	mov	r12,r5
80004d9c:	fe b0 fb da 	rcall	80004550 <_free_r>
80004da0:	49 19       	lddpc	r9,80004de4 <_malloc_r+0x408>
80004da2:	72 0a       	ld.w	r10,r9[0x0]
80004da4:	48 f8       	lddpc	r8,80004de0 <_malloc_r+0x404>
80004da6:	70 08       	ld.w	r8,r8[0x0]
80004da8:	14 38       	cp.w	r8,r10
80004daa:	f3 f8 ba 00 	st.whi	r9[0x0],r8
80004dae:	48 f9       	lddpc	r9,80004de8 <_malloc_r+0x40c>
80004db0:	72 0a       	ld.w	r10,r9[0x0]
80004db2:	14 38       	cp.w	r8,r10
80004db4:	f3 f8 ba 00 	st.whi	r9[0x0],r8
80004db8:	68 28       	ld.w	r8,r4[0x8]
80004dba:	70 18       	ld.w	r8,r8[0x4]
80004dbc:	e0 18 ff fc 	andl	r8,0xfffc
80004dc0:	0e 38       	cp.w	r8,r7
80004dc2:	5f 39       	srlo	r9
80004dc4:	0e 18       	sub	r8,r7
80004dc6:	58 f8       	cp.w	r8,15
80004dc8:	5f aa       	srle	r10
80004dca:	f5 e9 10 09 	or	r9,r10,r9
80004dce:	c0 f0       	breq	80004dec <_malloc_r+0x410>
80004dd0:	0a 9c       	mov	r12,r5
80004dd2:	c4 dc       	rcall	80004e6c <__malloc_unlock>
80004dd4:	d8 3a       	popm	r0-r7,pc,r12=0
80004dd6:	d7 03       	nop
80004dd8:	00 00       	add	r0,r0
80004dda:	0c 68       	and	r8,r6
80004ddc:	00 00       	add	r0,r0
80004dde:	05 d4       	ld.ub	r4,r2[0x5]
80004de0:	00 00       	add	r0,r0
80004de2:	0c 6c       	and	r12,r6
80004de4:	00 00       	add	r0,r0
80004de6:	0c 64       	and	r4,r6
80004de8:	00 00       	add	r0,r0
80004dea:	0c 60       	and	r0,r6
80004dec:	68 26       	ld.w	r6,r4[0x8]
80004dee:	a1 a8       	sbr	r8,0x0
80004df0:	0e 99       	mov	r9,r7
80004df2:	a1 a9       	sbr	r9,0x0
80004df4:	8d 19       	st.w	r6[0x4],r9
80004df6:	ec 07 00 07 	add	r7,r6,r7
80004dfa:	0a 9c       	mov	r12,r5
80004dfc:	89 27       	st.w	r4[0x8],r7
80004dfe:	8f 18       	st.w	r7[0x4],r8
80004e00:	c3 6c       	rcall	80004e6c <__malloc_unlock>
80004e02:	ec cc ff f8 	sub	r12,r6,-8
80004e06:	d8 32       	popm	r0-r7,pc

80004e08 <memchr>:
80004e08:	f7 db c0 08 	bfextu	r11,r11,0x0,0x8
80004e0c:	c0 68       	rjmp	80004e18 <memchr+0x10>
80004e0e:	20 1a       	sub	r10,1
80004e10:	19 88       	ld.ub	r8,r12[0x0]
80004e12:	16 38       	cp.w	r8,r11
80004e14:	5e 0c       	reteq	r12
80004e16:	2f fc       	sub	r12,-1
80004e18:	58 0a       	cp.w	r10,0
80004e1a:	cf a1       	brne	80004e0e <memchr+0x6>
80004e1c:	5e fa       	retal	r10

80004e1e <memmove>:
80004e1e:	d4 01       	pushm	lr
80004e20:	18 3b       	cp.w	r11,r12
80004e22:	c1 92       	brcc	80004e54 <memmove+0x36>
80004e24:	f6 0a 00 09 	add	r9,r11,r10
80004e28:	12 3c       	cp.w	r12,r9
80004e2a:	c1 52       	brcc	80004e54 <memmove+0x36>
80004e2c:	f8 0a 00 0b 	add	r11,r12,r10
80004e30:	30 08       	mov	r8,0
80004e32:	c0 68       	rjmp	80004e3e <memmove+0x20>
80004e34:	f2 08 07 0e 	ld.ub	lr,r9[r8]
80004e38:	20 1a       	sub	r10,1
80004e3a:	f6 08 0b 0e 	st.b	r11[r8],lr
80004e3e:	20 18       	sub	r8,1
80004e40:	58 0a       	cp.w	r10,0
80004e42:	cf 91       	brne	80004e34 <memmove+0x16>
80004e44:	d8 02       	popm	pc
80004e46:	f6 08 07 09 	ld.ub	r9,r11[r8]
80004e4a:	20 1a       	sub	r10,1
80004e4c:	f8 08 0b 09 	st.b	r12[r8],r9
80004e50:	2f f8       	sub	r8,-1
80004e52:	c0 28       	rjmp	80004e56 <memmove+0x38>
80004e54:	30 08       	mov	r8,0
80004e56:	58 0a       	cp.w	r10,0
80004e58:	cf 71       	brne	80004e46 <memmove+0x28>
80004e5a:	d8 02       	popm	pc

80004e5c <memset>:
80004e5c:	18 98       	mov	r8,r12
80004e5e:	c0 38       	rjmp	80004e64 <memset+0x8>
80004e60:	10 cb       	st.b	r8++,r11
80004e62:	20 1a       	sub	r10,1
80004e64:	58 0a       	cp.w	r10,0
80004e66:	cf d1       	brne	80004e60 <memset+0x4>
80004e68:	5e fc       	retal	r12

80004e6a <__malloc_lock>:
80004e6a:	5e fc       	retal	r12

80004e6c <__malloc_unlock>:
80004e6c:	5e fc       	retal	r12
80004e6e:	d7 03       	nop

80004e70 <_realloc_r>:
80004e70:	d4 31       	pushm	r0-r7,lr
80004e72:	20 1d       	sub	sp,4
80004e74:	16 94       	mov	r4,r11
80004e76:	18 92       	mov	r2,r12
80004e78:	14 9b       	mov	r11,r10
80004e7a:	58 04       	cp.w	r4,0
80004e7c:	c0 51       	brne	80004e86 <_realloc_r+0x16>
80004e7e:	fe b0 fd af 	rcall	800049dc <_malloc_r>
80004e82:	18 95       	mov	r5,r12
80004e84:	c5 09       	rjmp	80005124 <_realloc_r+0x2b4>
80004e86:	50 0a       	stdsp	sp[0x0],r10
80004e88:	cf 1f       	rcall	80004e6a <__malloc_lock>
80004e8a:	40 0b       	lddsp	r11,sp[0x0]
80004e8c:	f6 c8 ff f5 	sub	r8,r11,-11
80004e90:	e8 c1 00 08 	sub	r1,r4,8
80004e94:	10 96       	mov	r6,r8
80004e96:	62 1c       	ld.w	r12,r1[0x4]
80004e98:	e0 16 ff f8 	andl	r6,0xfff8
80004e9c:	59 68       	cp.w	r8,22
80004e9e:	f9 b6 08 10 	movls	r6,16
80004ea2:	16 36       	cp.w	r6,r11
80004ea4:	5f 38       	srlo	r8
80004ea6:	f1 e6 13 f8 	or	r8,r8,r6>>0x1f
80004eaa:	c0 50       	breq	80004eb4 <_realloc_r+0x44>
80004eac:	30 c8       	mov	r8,12
80004eae:	30 05       	mov	r5,0
80004eb0:	85 38       	st.w	r2[0xc],r8
80004eb2:	c3 99       	rjmp	80005124 <_realloc_r+0x2b4>
80004eb4:	18 90       	mov	r0,r12
80004eb6:	e0 10 ff fc 	andl	r0,0xfffc
80004eba:	0c 30       	cp.w	r0,r6
80004ebc:	e0 84 01 0a 	brge	800050d0 <_realloc_r+0x260>
80004ec0:	4c 98       	lddpc	r8,80004fe4 <_realloc_r+0x174>
80004ec2:	e2 00 00 09 	add	r9,r1,r0
80004ec6:	70 25       	ld.w	r5,r8[0x8]
80004ec8:	0a 39       	cp.w	r9,r5
80004eca:	c0 90       	breq	80004edc <_realloc_r+0x6c>
80004ecc:	72 1a       	ld.w	r10,r9[0x4]
80004ece:	a1 ca       	cbr	r10,0x0
80004ed0:	f2 0a 00 0a 	add	r10,r9,r10
80004ed4:	74 1a       	ld.w	r10,r10[0x4]
80004ed6:	ed ba 00 00 	bld	r10,0x0
80004eda:	c2 20       	breq	80004f1e <_realloc_r+0xae>
80004edc:	72 1a       	ld.w	r10,r9[0x4]
80004ede:	e0 1a ff fc 	andl	r10,0xfffc
80004ee2:	f4 00 00 03 	add	r3,r10,r0
80004ee6:	0a 39       	cp.w	r9,r5
80004ee8:	c1 31       	brne	80004f0e <_realloc_r+0x9e>
80004eea:	ec c7 ff f0 	sub	r7,r6,-16
80004eee:	0e 33       	cp.w	r3,r7
80004ef0:	c1 95       	brlt	80004f22 <_realloc_r+0xb2>
80004ef2:	e2 06 00 09 	add	r9,r1,r6
80004ef6:	0c 13       	sub	r3,r6
80004ef8:	a1 a3       	sbr	r3,0x0
80004efa:	93 13       	st.w	r9[0x4],r3
80004efc:	91 29       	st.w	r8[0x8],r9
80004efe:	04 9c       	mov	r12,r2
80004f00:	62 18       	ld.w	r8,r1[0x4]
80004f02:	08 95       	mov	r5,r4
80004f04:	f1 d8 c0 01 	bfextu	r8,r8,0x0,0x1
80004f08:	10 46       	or	r6,r8
80004f0a:	83 16       	st.w	r1[0x4],r6
80004f0c:	c0 b9       	rjmp	80005122 <_realloc_r+0x2b2>
80004f0e:	0c 33       	cp.w	r3,r6
80004f10:	c0 95       	brlt	80004f22 <_realloc_r+0xb2>
80004f12:	72 28       	ld.w	r8,r9[0x8]
80004f14:	02 97       	mov	r7,r1
80004f16:	72 39       	ld.w	r9,r9[0xc]
80004f18:	93 28       	st.w	r9[0x8],r8
80004f1a:	91 39       	st.w	r8[0xc],r9
80004f1c:	cd c8       	rjmp	800050d4 <_realloc_r+0x264>
80004f1e:	30 0a       	mov	r10,0
80004f20:	14 99       	mov	r9,r10
80004f22:	ed bc 00 00 	bld	r12,0x0
80004f26:	e0 80 00 96 	breq	80005052 <_realloc_r+0x1e2>
80004f2a:	62 07       	ld.w	r7,r1[0x0]
80004f2c:	e2 07 01 07 	sub	r7,r1,r7
80004f30:	6e 1c       	ld.w	r12,r7[0x4]
80004f32:	e0 1c ff fc 	andl	r12,0xfffc
80004f36:	58 09       	cp.w	r9,0
80004f38:	c5 80       	breq	80004fe8 <_realloc_r+0x178>
80004f3a:	f8 00 00 03 	add	r3,r12,r0
80004f3e:	0a 39       	cp.w	r9,r5
80004f40:	c4 71       	brne	80004fce <_realloc_r+0x15e>
80004f42:	14 03       	add	r3,r10
80004f44:	ec c9 ff f0 	sub	r9,r6,-16
80004f48:	12 33       	cp.w	r3,r9
80004f4a:	c4 f5       	brlt	80004fe8 <_realloc_r+0x178>
80004f4c:	6e 3a       	ld.w	r10,r7[0xc]
80004f4e:	6e 29       	ld.w	r9,r7[0x8]
80004f50:	95 29       	st.w	r10[0x8],r9
80004f52:	93 3a       	st.w	r9[0xc],r10
80004f54:	ee c5 ff f8 	sub	r5,r7,-8
80004f58:	e0 ca 00 04 	sub	r10,r0,4
80004f5c:	e0 4a 00 24 	cp.w	r10,36
80004f60:	e0 8b 00 25 	brhi	80004faa <_realloc_r+0x13a>
80004f64:	0a 99       	mov	r9,r5
80004f66:	59 3a       	cp.w	r10,19
80004f68:	e0 88 00 1a 	brls	80004f9c <_realloc_r+0x12c>
80004f6c:	09 09       	ld.w	r9,r4++
80004f6e:	8b 09       	st.w	r5[0x0],r9
80004f70:	09 09       	ld.w	r9,r4++
80004f72:	8f 39       	st.w	r7[0xc],r9
80004f74:	ee c9 ff f0 	sub	r9,r7,-16
80004f78:	59 ba       	cp.w	r10,27
80004f7a:	e0 88 00 11 	brls	80004f9c <_realloc_r+0x12c>
80004f7e:	09 0b       	ld.w	r11,r4++
80004f80:	93 0b       	st.w	r9[0x0],r11
80004f82:	09 09       	ld.w	r9,r4++
80004f84:	8f 59       	st.w	r7[0x14],r9
80004f86:	ee c9 ff e8 	sub	r9,r7,-24
80004f8a:	e0 4a 00 24 	cp.w	r10,36
80004f8e:	c0 71       	brne	80004f9c <_realloc_r+0x12c>
80004f90:	09 0a       	ld.w	r10,r4++
80004f92:	93 0a       	st.w	r9[0x0],r10
80004f94:	ee c9 ff e0 	sub	r9,r7,-32
80004f98:	09 0a       	ld.w	r10,r4++
80004f9a:	8f 7a       	st.w	r7[0x1c],r10
80004f9c:	09 0a       	ld.w	r10,r4++
80004f9e:	12 aa       	st.w	r9++,r10
80004fa0:	68 0a       	ld.w	r10,r4[0x0]
80004fa2:	93 0a       	st.w	r9[0x0],r10
80004fa4:	68 1a       	ld.w	r10,r4[0x4]
80004fa6:	93 1a       	st.w	r9[0x4],r10
80004fa8:	c0 68       	rjmp	80004fb4 <_realloc_r+0x144>
80004faa:	50 08       	stdsp	sp[0x0],r8
80004fac:	08 9b       	mov	r11,r4
80004fae:	0a 9c       	mov	r12,r5
80004fb0:	c3 7f       	rcall	80004e1e <memmove>
80004fb2:	40 08       	lddsp	r8,sp[0x0]
80004fb4:	ee 06 00 09 	add	r9,r7,r6
80004fb8:	0c 13       	sub	r3,r6
80004fba:	a1 a3       	sbr	r3,0x0
80004fbc:	93 13       	st.w	r9[0x4],r3
80004fbe:	91 29       	st.w	r8[0x8],r9
80004fc0:	04 9c       	mov	r12,r2
80004fc2:	6e 18       	ld.w	r8,r7[0x4]
80004fc4:	f1 d8 c0 01 	bfextu	r8,r8,0x0,0x1
80004fc8:	10 46       	or	r6,r8
80004fca:	8f 16       	st.w	r7[0x4],r6
80004fcc:	ca b8       	rjmp	80005122 <_realloc_r+0x2b2>
80004fce:	14 03       	add	r3,r10
80004fd0:	0c 33       	cp.w	r3,r6
80004fd2:	c0 b5       	brlt	80004fe8 <_realloc_r+0x178>
80004fd4:	72 28       	ld.w	r8,r9[0x8]
80004fd6:	72 39       	ld.w	r9,r9[0xc]
80004fd8:	93 28       	st.w	r9[0x8],r8
80004fda:	91 39       	st.w	r8[0xc],r9
80004fdc:	6e 28       	ld.w	r8,r7[0x8]
80004fde:	6e 39       	ld.w	r9,r7[0xc]
80004fe0:	c0 a8       	rjmp	80004ff4 <_realloc_r+0x184>
80004fe2:	d7 03       	nop
80004fe4:	00 00       	add	r0,r0
80004fe6:	01 c8       	ld.ub	r8,r0[0x4]
80004fe8:	f8 00 00 03 	add	r3,r12,r0
80004fec:	0c 33       	cp.w	r3,r6
80004fee:	c3 25       	brlt	80005052 <_realloc_r+0x1e2>
80004ff0:	6e 39       	ld.w	r9,r7[0xc]
80004ff2:	6e 28       	ld.w	r8,r7[0x8]
80004ff4:	93 28       	st.w	r9[0x8],r8
80004ff6:	91 39       	st.w	r8[0xc],r9
80004ff8:	e0 ca 00 04 	sub	r10,r0,4
80004ffc:	ee cc ff f8 	sub	r12,r7,-8
80005000:	e0 4a 00 24 	cp.w	r10,36
80005004:	e0 8b 00 24 	brhi	8000504c <_realloc_r+0x1dc>
80005008:	59 3a       	cp.w	r10,19
8000500a:	e0 88 00 1a 	brls	8000503e <_realloc_r+0x1ce>
8000500e:	09 08       	ld.w	r8,r4++
80005010:	99 08       	st.w	r12[0x0],r8
80005012:	09 08       	ld.w	r8,r4++
80005014:	8f 38       	st.w	r7[0xc],r8
80005016:	ee cc ff f0 	sub	r12,r7,-16
8000501a:	59 ba       	cp.w	r10,27
8000501c:	e0 88 00 11 	brls	8000503e <_realloc_r+0x1ce>
80005020:	09 08       	ld.w	r8,r4++
80005022:	99 08       	st.w	r12[0x0],r8
80005024:	09 08       	ld.w	r8,r4++
80005026:	8f 58       	st.w	r7[0x14],r8
80005028:	ee cc ff e8 	sub	r12,r7,-24
8000502c:	e0 4a 00 24 	cp.w	r10,36
80005030:	c0 71       	brne	8000503e <_realloc_r+0x1ce>
80005032:	09 08       	ld.w	r8,r4++
80005034:	99 08       	st.w	r12[0x0],r8
80005036:	ee cc ff e0 	sub	r12,r7,-32
8000503a:	09 08       	ld.w	r8,r4++
8000503c:	8f 78       	st.w	r7[0x1c],r8
8000503e:	09 08       	ld.w	r8,r4++
80005040:	18 a8       	st.w	r12++,r8
80005042:	68 08       	ld.w	r8,r4[0x0]
80005044:	99 08       	st.w	r12[0x0],r8
80005046:	68 18       	ld.w	r8,r4[0x4]
80005048:	99 18       	st.w	r12[0x4],r8
8000504a:	c4 58       	rjmp	800050d4 <_realloc_r+0x264>
8000504c:	08 9b       	mov	r11,r4
8000504e:	ce 8e       	rcall	80004e1e <memmove>
80005050:	c4 28       	rjmp	800050d4 <_realloc_r+0x264>
80005052:	04 9c       	mov	r12,r2
80005054:	fe b0 fc c4 	rcall	800049dc <_malloc_r>
80005058:	18 95       	mov	r5,r12
8000505a:	c3 90       	breq	800050cc <_realloc_r+0x25c>
8000505c:	62 18       	ld.w	r8,r1[0x4]
8000505e:	f8 c9 00 08 	sub	r9,r12,8
80005062:	a1 c8       	cbr	r8,0x0
80005064:	e2 08 00 08 	add	r8,r1,r8
80005068:	10 39       	cp.w	r9,r8
8000506a:	c0 71       	brne	80005078 <_realloc_r+0x208>
8000506c:	72 13       	ld.w	r3,r9[0x4]
8000506e:	02 97       	mov	r7,r1
80005070:	e0 13 ff fc 	andl	r3,0xfffc
80005074:	00 03       	add	r3,r0
80005076:	c2 f8       	rjmp	800050d4 <_realloc_r+0x264>
80005078:	e0 ca 00 04 	sub	r10,r0,4
8000507c:	e0 4a 00 24 	cp.w	r10,36
80005080:	e0 8b 00 20 	brhi	800050c0 <_realloc_r+0x250>
80005084:	08 99       	mov	r9,r4
80005086:	18 98       	mov	r8,r12
80005088:	59 3a       	cp.w	r10,19
8000508a:	e0 88 00 14 	brls	800050b2 <_realloc_r+0x242>
8000508e:	13 0b       	ld.w	r11,r9++
80005090:	10 ab       	st.w	r8++,r11
80005092:	13 0b       	ld.w	r11,r9++
80005094:	10 ab       	st.w	r8++,r11
80005096:	59 ba       	cp.w	r10,27
80005098:	e0 88 00 0d 	brls	800050b2 <_realloc_r+0x242>
8000509c:	13 0b       	ld.w	r11,r9++
8000509e:	10 ab       	st.w	r8++,r11
800050a0:	13 0b       	ld.w	r11,r9++
800050a2:	10 ab       	st.w	r8++,r11
800050a4:	e0 4a 00 24 	cp.w	r10,36
800050a8:	c0 51       	brne	800050b2 <_realloc_r+0x242>
800050aa:	13 0a       	ld.w	r10,r9++
800050ac:	10 aa       	st.w	r8++,r10
800050ae:	13 0a       	ld.w	r10,r9++
800050b0:	10 aa       	st.w	r8++,r10
800050b2:	13 0a       	ld.w	r10,r9++
800050b4:	10 aa       	st.w	r8++,r10
800050b6:	72 0a       	ld.w	r10,r9[0x0]
800050b8:	91 0a       	st.w	r8[0x0],r10
800050ba:	72 19       	ld.w	r9,r9[0x4]
800050bc:	91 19       	st.w	r8[0x4],r9
800050be:	c0 38       	rjmp	800050c4 <_realloc_r+0x254>
800050c0:	08 9b       	mov	r11,r4
800050c2:	ca ee       	rcall	80004e1e <memmove>
800050c4:	08 9b       	mov	r11,r4
800050c6:	04 9c       	mov	r12,r2
800050c8:	fe b0 fa 44 	rcall	80004550 <_free_r>
800050cc:	04 9c       	mov	r12,r2
800050ce:	c2 a8       	rjmp	80005122 <_realloc_r+0x2b2>
800050d0:	00 93       	mov	r3,r0
800050d2:	02 97       	mov	r7,r1
800050d4:	e6 06 01 09 	sub	r9,r3,r6
800050d8:	6e 18       	ld.w	r8,r7[0x4]
800050da:	58 f9       	cp.w	r9,15
800050dc:	e0 88 00 16 	brls	80005108 <_realloc_r+0x298>
800050e0:	f1 d8 c0 01 	bfextu	r8,r8,0x0,0x1
800050e4:	ed e8 10 08 	or	r8,r6,r8
800050e8:	8f 18       	st.w	r7[0x4],r8
800050ea:	12 98       	mov	r8,r9
800050ec:	a1 a8       	sbr	r8,0x0
800050ee:	ee 06 00 0b 	add	r11,r7,r6
800050f2:	f6 09 00 09 	add	r9,r11,r9
800050f6:	97 18       	st.w	r11[0x4],r8
800050f8:	72 18       	ld.w	r8,r9[0x4]
800050fa:	a1 a8       	sbr	r8,0x0
800050fc:	2f 8b       	sub	r11,-8
800050fe:	93 18       	st.w	r9[0x4],r8
80005100:	04 9c       	mov	r12,r2
80005102:	fe b0 fa 27 	rcall	80004550 <_free_r>
80005106:	c0 b8       	rjmp	8000511c <_realloc_r+0x2ac>
80005108:	f1 d8 c0 01 	bfextu	r8,r8,0x0,0x1
8000510c:	e7 e8 10 08 	or	r8,r3,r8
80005110:	8f 18       	st.w	r7[0x4],r8
80005112:	ee 03 00 03 	add	r3,r7,r3
80005116:	66 18       	ld.w	r8,r3[0x4]
80005118:	a1 a8       	sbr	r8,0x0
8000511a:	87 18       	st.w	r3[0x4],r8
8000511c:	04 9c       	mov	r12,r2
8000511e:	ee c5 ff f8 	sub	r5,r7,-8
80005122:	ca 5e       	rcall	80004e6c <__malloc_unlock>
80005124:	0a 9c       	mov	r12,r5
80005126:	2f fd       	sub	sp,-4
80005128:	d8 32       	popm	r0-r7,pc
8000512a:	d7 03       	nop

8000512c <_sbrk_r>:
8000512c:	d4 21       	pushm	r4-r7,lr
8000512e:	30 08       	mov	r8,0
80005130:	18 97       	mov	r7,r12
80005132:	48 66       	lddpc	r6,80005148 <_sbrk_r+0x1c>
80005134:	16 9c       	mov	r12,r11
80005136:	8d 08       	st.w	r6[0x0],r8
80005138:	c9 8c       	rcall	80005268 <_sbrk>
8000513a:	5b fc       	cp.w	r12,-1
8000513c:	c0 51       	brne	80005146 <_sbrk_r+0x1a>
8000513e:	6c 08       	ld.w	r8,r6[0x0]
80005140:	58 08       	cp.w	r8,0
80005142:	ef f8 1a 03 	st.wne	r7[0xc],r8
80005146:	d8 22       	popm	r4-r7,pc
80005148:	00 00       	add	r0,r0
8000514a:	0c c4       	st.b	r6++,r4

8000514c <__sclose>:
8000514c:	d4 01       	pushm	lr
8000514e:	96 7b       	ld.sh	r11,r11[0xe]
80005150:	c2 cd       	rcall	800053a8 <_close_r>
80005152:	d8 02       	popm	pc

80005154 <__sseek>:
80005154:	d4 21       	pushm	r4-r7,lr
80005156:	16 97       	mov	r7,r11
80005158:	96 7b       	ld.sh	r11,r11[0xe]
8000515a:	ca 3d       	rcall	800054a0 <_lseek_r>
8000515c:	8e 68       	ld.sh	r8,r7[0xc]
8000515e:	10 99       	mov	r9,r8
80005160:	ad c8       	cbr	r8,0xc
80005162:	ad a9       	sbr	r9,0xc
80005164:	5b fc       	cp.w	r12,-1
80005166:	ef f8 0c 06 	st.heq	r7[0xc],r8
8000516a:	ef f9 1c 06 	st.hne	r7[0xc],r9
8000516e:	ef fc 1a 15 	st.wne	r7[0x54],r12
80005172:	d8 22       	popm	r4-r7,pc

80005174 <__swrite>:
80005174:	d4 21       	pushm	r4-r7,lr
80005176:	96 68       	ld.sh	r8,r11[0xc]
80005178:	16 97       	mov	r7,r11
8000517a:	14 95       	mov	r5,r10
8000517c:	12 94       	mov	r4,r9
8000517e:	e2 18 01 00 	andl	r8,0x100,COH
80005182:	18 96       	mov	r6,r12
80005184:	c0 50       	breq	8000518e <__swrite+0x1a>
80005186:	30 29       	mov	r9,2
80005188:	30 0a       	mov	r10,0
8000518a:	96 7b       	ld.sh	r11,r11[0xe]
8000518c:	c8 ad       	rcall	800054a0 <_lseek_r>
8000518e:	8e 68       	ld.sh	r8,r7[0xc]
80005190:	ad c8       	cbr	r8,0xc
80005192:	08 99       	mov	r9,r4
80005194:	0a 9a       	mov	r10,r5
80005196:	8e 7b       	ld.sh	r11,r7[0xe]
80005198:	0c 9c       	mov	r12,r6
8000519a:	ae 68       	st.h	r7[0xc],r8
8000519c:	c8 4c       	rcall	800052a4 <_write_r>
8000519e:	d8 22       	popm	r4-r7,pc

800051a0 <__sread>:
800051a0:	d4 21       	pushm	r4-r7,lr
800051a2:	16 97       	mov	r7,r11
800051a4:	96 7b       	ld.sh	r11,r11[0xe]
800051a6:	ce dd       	rcall	80005580 <_read_r>
800051a8:	c0 65       	brlt	800051b4 <__sread+0x14>
800051aa:	6f 58       	ld.w	r8,r7[0x54]
800051ac:	18 08       	add	r8,r12
800051ae:	ef 48 00 54 	st.w	r7[84],r8
800051b2:	d8 22       	popm	r4-r7,pc
800051b4:	8e 68       	ld.sh	r8,r7[0xc]
800051b6:	ad c8       	cbr	r8,0xc
800051b8:	ae 68       	st.h	r7[0xc],r8
800051ba:	d8 22       	popm	r4-r7,pc

800051bc <_close>:
800051bc:	30 28       	mov	r8,2
800051be:	d6 73       	breakpoint
800051c0:	3f fc       	mov	r12,-1
800051c2:	35 8b       	mov	r11,88
800051c4:	58 0c       	cp.w	r12,0
800051c6:	5e 4c       	retge	r12
800051c8:	48 2a       	lddpc	r10,800051d0 <_close+0x14>
800051ca:	95 0b       	st.w	r10[0x0],r11
800051cc:	5e fc       	retal	r12
800051ce:	d7 03       	nop
800051d0:	00 00       	add	r0,r0
800051d2:	0c c4       	st.b	r6++,r4

800051d4 <_lseek>:
800051d4:	30 58       	mov	r8,5
800051d6:	d6 73       	breakpoint
800051d8:	3f fc       	mov	r12,-1
800051da:	35 8b       	mov	r11,88
800051dc:	58 0c       	cp.w	r12,0
800051de:	5e 4c       	retge	r12
800051e0:	48 2a       	lddpc	r10,800051e8 <_lseek+0x14>
800051e2:	95 0b       	st.w	r10[0x0],r11
800051e4:	5e fc       	retal	r12
800051e6:	d7 03       	nop
800051e8:	00 00       	add	r0,r0
800051ea:	0c c4       	st.b	r6++,r4

800051ec <isatty>:
800051ec:	30 b8       	mov	r8,11
800051ee:	d6 73       	breakpoint
800051f0:	3f fc       	mov	r12,-1
800051f2:	35 8b       	mov	r11,88
800051f4:	58 0c       	cp.w	r12,0
800051f6:	5e 4c       	retge	r12
800051f8:	48 2a       	lddpc	r10,80005200 <isatty+0x14>
800051fa:	95 0b       	st.w	r10[0x0],r11
800051fc:	5e fc       	retal	r12
800051fe:	d7 03       	nop
80005200:	00 00       	add	r0,r0
80005202:	0c c4       	st.b	r6++,r4

80005204 <_fstat_host>:
80005204:	30 98       	mov	r8,9
80005206:	d6 73       	breakpoint
80005208:	3f fc       	mov	r12,-1
8000520a:	35 8b       	mov	r11,88
8000520c:	58 0c       	cp.w	r12,0
8000520e:	5e 4c       	retge	r12
80005210:	48 2a       	lddpc	r10,80005218 <_fstat_host+0x14>
80005212:	95 0b       	st.w	r10[0x0],r11
80005214:	5e fc       	retal	r12
80005216:	d7 03       	nop
80005218:	00 00       	add	r0,r0
8000521a:	0c c4       	st.b	r6++,r4

8000521c <_fstat>:
8000521c:	d4 21       	pushm	r4-r7,lr
8000521e:	21 0d       	sub	sp,64
80005220:	16 97       	mov	r7,r11
80005222:	1a 9b       	mov	r11,sp
80005224:	cf 0f       	rcall	80005204 <_fstat_host>
80005226:	c0 34       	brge	8000522c <_fstat+0x10>
80005228:	3f fc       	mov	r12,-1
8000522a:	c1 c8       	rjmp	80005262 <_fstat+0x46>
8000522c:	40 08       	lddsp	r8,sp[0x0]
8000522e:	ae 08       	st.h	r7[0x0],r8
80005230:	40 18       	lddsp	r8,sp[0x4]
80005232:	ae 18       	st.h	r7[0x2],r8
80005234:	40 28       	lddsp	r8,sp[0x8]
80005236:	8f 18       	st.w	r7[0x4],r8
80005238:	40 38       	lddsp	r8,sp[0xc]
8000523a:	ae 48       	st.h	r7[0x8],r8
8000523c:	40 48       	lddsp	r8,sp[0x10]
8000523e:	ae 58       	st.h	r7[0xa],r8
80005240:	40 58       	lddsp	r8,sp[0x14]
80005242:	ae 68       	st.h	r7[0xc],r8
80005244:	40 68       	lddsp	r8,sp[0x18]
80005246:	ae 78       	st.h	r7[0xe],r8
80005248:	40 88       	lddsp	r8,sp[0x20]
8000524a:	8f 48       	st.w	r7[0x10],r8
8000524c:	40 a8       	lddsp	r8,sp[0x28]
8000524e:	8f b8       	st.w	r7[0x2c],r8
80005250:	40 c8       	lddsp	r8,sp[0x30]
80005252:	8f c8       	st.w	r7[0x30],r8
80005254:	40 d8       	lddsp	r8,sp[0x34]
80005256:	8f 58       	st.w	r7[0x14],r8
80005258:	40 e8       	lddsp	r8,sp[0x38]
8000525a:	30 0c       	mov	r12,0
8000525c:	8f 78       	st.w	r7[0x1c],r8
8000525e:	40 f8       	lddsp	r8,sp[0x3c]
80005260:	8f 98       	st.w	r7[0x24],r8
80005262:	2f 0d       	sub	sp,-64
80005264:	d8 22       	popm	r4-r7,pc
80005266:	d7 03       	nop

80005268 <_sbrk>:
80005268:	d4 01       	pushm	lr
8000526a:	48 c8       	lddpc	r8,80005298 <_sbrk+0x30>
8000526c:	70 09       	ld.w	r9,r8[0x0]
8000526e:	58 09       	cp.w	r9,0
80005270:	c0 31       	brne	80005276 <_sbrk+0xe>
80005272:	48 b9       	lddpc	r9,8000529c <_sbrk+0x34>
80005274:	91 09       	st.w	r8[0x0],r9
80005276:	48 99       	lddpc	r9,80005298 <_sbrk+0x30>
80005278:	48 aa       	lddpc	r10,800052a0 <_sbrk+0x38>
8000527a:	72 08       	ld.w	r8,r9[0x0]
8000527c:	f0 0c 00 0c 	add	r12,r8,r12
80005280:	14 3c       	cp.w	r12,r10
80005282:	e0 8b 00 04 	brhi	8000528a <_sbrk+0x22>
80005286:	93 0c       	st.w	r9[0x0],r12
80005288:	c0 58       	rjmp	80005292 <_sbrk+0x2a>
8000528a:	c9 fc       	rcall	800053c8 <__errno>
8000528c:	30 c8       	mov	r8,12
8000528e:	99 08       	st.w	r12[0x0],r8
80005290:	3f f8       	mov	r8,-1
80005292:	10 9c       	mov	r12,r8
80005294:	d8 02       	popm	pc
80005296:	d7 03       	nop
80005298:	00 00       	add	r0,r0
8000529a:	0c 94       	mov	r4,r6
8000529c:	00 00       	add	r0,r0
8000529e:	0c c8       	st.b	r6++,r8
800052a0:	00 00       	add	r0,r0
800052a2:	f0 00       	*unknown*

800052a4 <_write_r>:
800052a4:	d4 21       	pushm	r4-r7,lr
800052a6:	16 98       	mov	r8,r11
800052a8:	18 97       	mov	r7,r12
800052aa:	10 9c       	mov	r12,r8
800052ac:	30 08       	mov	r8,0
800052ae:	14 9b       	mov	r11,r10
800052b0:	48 66       	lddpc	r6,800052c8 <_write_r+0x24>
800052b2:	12 9a       	mov	r10,r9
800052b4:	8d 08       	st.w	r6[0x0],r8
800052b6:	fe b0 f4 23 	rcall	80003afc <_write>
800052ba:	5b fc       	cp.w	r12,-1
800052bc:	c0 51       	brne	800052c6 <_write_r+0x22>
800052be:	6c 08       	ld.w	r8,r6[0x0]
800052c0:	58 08       	cp.w	r8,0
800052c2:	ef f8 1a 03 	st.wne	r7[0xc],r8
800052c6:	d8 22       	popm	r4-r7,pc
800052c8:	00 00       	add	r0,r0
800052ca:	0c c4       	st.b	r6++,r4

800052cc <__swsetup_r>:
800052cc:	d4 21       	pushm	r4-r7,lr
800052ce:	4b 38       	lddpc	r8,80005398 <__swsetup_r+0xcc>
800052d0:	18 96       	mov	r6,r12
800052d2:	16 97       	mov	r7,r11
800052d4:	70 0c       	ld.w	r12,r8[0x0]
800052d6:	58 0c       	cp.w	r12,0
800052d8:	c0 60       	breq	800052e4 <__swsetup_r+0x18>
800052da:	78 68       	ld.w	r8,r12[0x18]
800052dc:	58 08       	cp.w	r8,0
800052de:	c0 31       	brne	800052e4 <__swsetup_r+0x18>
800052e0:	fe b0 f8 9c 	rcall	80004418 <__sinit>
800052e4:	4a e8       	lddpc	r8,8000539c <__swsetup_r+0xd0>
800052e6:	10 37       	cp.w	r7,r8
800052e8:	c0 51       	brne	800052f2 <__swsetup_r+0x26>
800052ea:	4a c8       	lddpc	r8,80005398 <__swsetup_r+0xcc>
800052ec:	70 08       	ld.w	r8,r8[0x0]
800052ee:	70 07       	ld.w	r7,r8[0x0]
800052f0:	c0 e8       	rjmp	8000530c <__swsetup_r+0x40>
800052f2:	4a c8       	lddpc	r8,800053a0 <__swsetup_r+0xd4>
800052f4:	10 37       	cp.w	r7,r8
800052f6:	c0 51       	brne	80005300 <__swsetup_r+0x34>
800052f8:	4a 88       	lddpc	r8,80005398 <__swsetup_r+0xcc>
800052fa:	70 08       	ld.w	r8,r8[0x0]
800052fc:	70 17       	ld.w	r7,r8[0x4]
800052fe:	c0 78       	rjmp	8000530c <__swsetup_r+0x40>
80005300:	4a 98       	lddpc	r8,800053a4 <__swsetup_r+0xd8>
80005302:	10 37       	cp.w	r7,r8
80005304:	c0 41       	brne	8000530c <__swsetup_r+0x40>
80005306:	4a 58       	lddpc	r8,80005398 <__swsetup_r+0xcc>
80005308:	70 08       	ld.w	r8,r8[0x0]
8000530a:	70 27       	ld.w	r7,r8[0x8]
8000530c:	8e 68       	ld.sh	r8,r7[0xc]
8000530e:	ed b8 00 03 	bld	r8,0x3
80005312:	c1 e0       	breq	8000534e <__swsetup_r+0x82>
80005314:	ed b8 00 04 	bld	r8,0x4
80005318:	c3 d1       	brne	80005392 <__swsetup_r+0xc6>
8000531a:	ed b8 00 02 	bld	r8,0x2
8000531e:	c1 51       	brne	80005348 <__swsetup_r+0x7c>
80005320:	6e db       	ld.w	r11,r7[0x34]
80005322:	58 0b       	cp.w	r11,0
80005324:	c0 a0       	breq	80005338 <__swsetup_r+0x6c>
80005326:	ee c8 ff bc 	sub	r8,r7,-68
8000532a:	10 3b       	cp.w	r11,r8
8000532c:	c0 40       	breq	80005334 <__swsetup_r+0x68>
8000532e:	0c 9c       	mov	r12,r6
80005330:	fe b0 f9 10 	rcall	80004550 <_free_r>
80005334:	30 08       	mov	r8,0
80005336:	8f d8       	st.w	r7[0x34],r8
80005338:	8e 68       	ld.sh	r8,r7[0xc]
8000533a:	e0 18 ff db 	andl	r8,0xffdb
8000533e:	ae 68       	st.h	r7[0xc],r8
80005340:	30 08       	mov	r8,0
80005342:	8f 18       	st.w	r7[0x4],r8
80005344:	6e 48       	ld.w	r8,r7[0x10]
80005346:	8f 08       	st.w	r7[0x0],r8
80005348:	8e 68       	ld.sh	r8,r7[0xc]
8000534a:	a3 b8       	sbr	r8,0x3
8000534c:	ae 68       	st.h	r7[0xc],r8
8000534e:	6e 48       	ld.w	r8,r7[0x10]
80005350:	58 08       	cp.w	r8,0
80005352:	c0 a1       	brne	80005366 <__swsetup_r+0x9a>
80005354:	8e 68       	ld.sh	r8,r7[0xc]
80005356:	e2 18 02 80 	andl	r8,0x280,COH
8000535a:	e0 48 02 00 	cp.w	r8,512
8000535e:	c0 40       	breq	80005366 <__swsetup_r+0x9a>
80005360:	0c 9c       	mov	r12,r6
80005362:	0e 9b       	mov	r11,r7
80005364:	cb 2c       	rcall	800054c8 <__smakebuf_r>
80005366:	8e 69       	ld.sh	r9,r7[0xc]
80005368:	f1 d9 c0 01 	bfextu	r8,r9,0x0,0x1
8000536c:	c0 70       	breq	8000537a <__swsetup_r+0xae>
8000536e:	30 08       	mov	r8,0
80005370:	8f 28       	st.w	r7[0x8],r8
80005372:	6e 58       	ld.w	r8,r7[0x14]
80005374:	5c 38       	neg	r8
80005376:	8f 68       	st.w	r7[0x18],r8
80005378:	c0 68       	rjmp	80005384 <__swsetup_r+0xb8>
8000537a:	ed b9 00 01 	bld	r9,0x1
8000537e:	ef f8 10 05 	ld.wne	r8,r7[0x14]
80005382:	8f 28       	st.w	r7[0x8],r8
80005384:	6e 48       	ld.w	r8,r7[0x10]
80005386:	58 08       	cp.w	r8,0
80005388:	c0 61       	brne	80005394 <__swsetup_r+0xc8>
8000538a:	8e 68       	ld.sh	r8,r7[0xc]
8000538c:	ed b8 00 07 	bld	r8,0x7
80005390:	c0 21       	brne	80005394 <__swsetup_r+0xc8>
80005392:	dc 2a       	popm	r4-r7,pc,r12=-1
80005394:	d8 2a       	popm	r4-r7,pc,r12=0
80005396:	d7 03       	nop
80005398:	00 00       	add	r0,r0
8000539a:	01 c4       	ld.ub	r4,r0[0x4]
8000539c:	80 00       	ld.sh	r0,r0[0x0]
8000539e:	59 0c       	cp.w	r12,16
800053a0:	80 00       	ld.sh	r0,r0[0x0]
800053a2:	59 2c       	cp.w	r12,18
800053a4:	80 00       	ld.sh	r0,r0[0x0]
800053a6:	59 4c       	cp.w	r12,20

800053a8 <_close_r>:
800053a8:	d4 21       	pushm	r4-r7,lr
800053aa:	30 08       	mov	r8,0
800053ac:	18 97       	mov	r7,r12
800053ae:	48 66       	lddpc	r6,800053c4 <_close_r+0x1c>
800053b0:	16 9c       	mov	r12,r11
800053b2:	8d 08       	st.w	r6[0x0],r8
800053b4:	c0 4f       	rcall	800051bc <_close>
800053b6:	5b fc       	cp.w	r12,-1
800053b8:	c0 51       	brne	800053c2 <_close_r+0x1a>
800053ba:	6c 08       	ld.w	r8,r6[0x0]
800053bc:	58 08       	cp.w	r8,0
800053be:	ef f8 1a 03 	st.wne	r7[0xc],r8
800053c2:	d8 22       	popm	r4-r7,pc
800053c4:	00 00       	add	r0,r0
800053c6:	0c c4       	st.b	r6++,r4

800053c8 <__errno>:
800053c8:	48 28       	lddpc	r8,800053d0 <__errno+0x8>
800053ca:	70 0c       	ld.w	r12,r8[0x0]
800053cc:	2f 4c       	sub	r12,-12
800053ce:	5e fc       	retal	r12
800053d0:	00 00       	add	r0,r0
800053d2:	01 c4       	ld.ub	r4,r0[0x4]

800053d4 <_fclose_r>:
800053d4:	d4 21       	pushm	r4-r7,lr
800053d6:	18 96       	mov	r6,r12
800053d8:	16 97       	mov	r7,r11
800053da:	58 0b       	cp.w	r11,0
800053dc:	c0 31       	brne	800053e2 <_fclose_r+0xe>
800053de:	16 95       	mov	r5,r11
800053e0:	c5 08       	rjmp	80005480 <_fclose_r+0xac>
800053e2:	fe b0 f7 c7 	rcall	80004370 <__sfp_lock_acquire>
800053e6:	58 06       	cp.w	r6,0
800053e8:	c0 70       	breq	800053f6 <_fclose_r+0x22>
800053ea:	6c 68       	ld.w	r8,r6[0x18]
800053ec:	58 08       	cp.w	r8,0
800053ee:	c0 41       	brne	800053f6 <_fclose_r+0x22>
800053f0:	0c 9c       	mov	r12,r6
800053f2:	fe b0 f8 13 	rcall	80004418 <__sinit>
800053f6:	4a 48       	lddpc	r8,80005484 <_fclose_r+0xb0>
800053f8:	10 37       	cp.w	r7,r8
800053fa:	c0 31       	brne	80005400 <_fclose_r+0x2c>
800053fc:	6c 07       	ld.w	r7,r6[0x0]
800053fe:	c0 a8       	rjmp	80005412 <_fclose_r+0x3e>
80005400:	4a 28       	lddpc	r8,80005488 <_fclose_r+0xb4>
80005402:	10 37       	cp.w	r7,r8
80005404:	c0 31       	brne	8000540a <_fclose_r+0x36>
80005406:	6c 17       	ld.w	r7,r6[0x4]
80005408:	c0 58       	rjmp	80005412 <_fclose_r+0x3e>
8000540a:	4a 18       	lddpc	r8,8000548c <_fclose_r+0xb8>
8000540c:	10 37       	cp.w	r7,r8
8000540e:	ed f7 00 02 	ld.weq	r7,r6[0x8]
80005412:	8e 69       	ld.sh	r9,r7[0xc]
80005414:	30 08       	mov	r8,0
80005416:	f0 09 19 00 	cp.h	r9,r8
8000541a:	c0 51       	brne	80005424 <_fclose_r+0x50>
8000541c:	fe b0 f7 ab 	rcall	80004372 <__sfp_lock_release>
80005420:	30 05       	mov	r5,0
80005422:	c2 f8       	rjmp	80005480 <_fclose_r+0xac>
80005424:	0e 9b       	mov	r11,r7
80005426:	0c 9c       	mov	r12,r6
80005428:	fe b0 f7 1c 	rcall	80004260 <_fflush_r>
8000542c:	6e c8       	ld.w	r8,r7[0x30]
8000542e:	18 95       	mov	r5,r12
80005430:	58 08       	cp.w	r8,0
80005432:	c0 60       	breq	8000543e <_fclose_r+0x6a>
80005434:	6e 8b       	ld.w	r11,r7[0x20]
80005436:	0c 9c       	mov	r12,r6
80005438:	5d 18       	icall	r8
8000543a:	f9 b5 05 ff 	movlt	r5,-1
8000543e:	8e 68       	ld.sh	r8,r7[0xc]
80005440:	ed b8 00 07 	bld	r8,0x7
80005444:	c0 51       	brne	8000544e <_fclose_r+0x7a>
80005446:	6e 4b       	ld.w	r11,r7[0x10]
80005448:	0c 9c       	mov	r12,r6
8000544a:	fe b0 f8 83 	rcall	80004550 <_free_r>
8000544e:	6e db       	ld.w	r11,r7[0x34]
80005450:	58 0b       	cp.w	r11,0
80005452:	c0 a0       	breq	80005466 <_fclose_r+0x92>
80005454:	ee c8 ff bc 	sub	r8,r7,-68
80005458:	10 3b       	cp.w	r11,r8
8000545a:	c0 40       	breq	80005462 <_fclose_r+0x8e>
8000545c:	0c 9c       	mov	r12,r6
8000545e:	fe b0 f8 79 	rcall	80004550 <_free_r>
80005462:	30 08       	mov	r8,0
80005464:	8f d8       	st.w	r7[0x34],r8
80005466:	6f 2b       	ld.w	r11,r7[0x48]
80005468:	58 0b       	cp.w	r11,0
8000546a:	c0 70       	breq	80005478 <_fclose_r+0xa4>
8000546c:	0c 9c       	mov	r12,r6
8000546e:	fe b0 f8 71 	rcall	80004550 <_free_r>
80005472:	30 08       	mov	r8,0
80005474:	ef 48 00 48 	st.w	r7[72],r8
80005478:	30 08       	mov	r8,0
8000547a:	ae 68       	st.h	r7[0xc],r8
8000547c:	fe b0 f7 7b 	rcall	80004372 <__sfp_lock_release>
80005480:	0a 9c       	mov	r12,r5
80005482:	d8 22       	popm	r4-r7,pc
80005484:	80 00       	ld.sh	r0,r0[0x0]
80005486:	59 0c       	cp.w	r12,16
80005488:	80 00       	ld.sh	r0,r0[0x0]
8000548a:	59 2c       	cp.w	r12,18
8000548c:	80 00       	ld.sh	r0,r0[0x0]
8000548e:	59 4c       	cp.w	r12,20

80005490 <fclose>:
80005490:	d4 01       	pushm	lr
80005492:	48 38       	lddpc	r8,8000549c <fclose+0xc>
80005494:	18 9b       	mov	r11,r12
80005496:	70 0c       	ld.w	r12,r8[0x0]
80005498:	c9 ef       	rcall	800053d4 <_fclose_r>
8000549a:	d8 02       	popm	pc
8000549c:	00 00       	add	r0,r0
8000549e:	01 c4       	ld.ub	r4,r0[0x4]

800054a0 <_lseek_r>:
800054a0:	d4 21       	pushm	r4-r7,lr
800054a2:	16 98       	mov	r8,r11
800054a4:	18 97       	mov	r7,r12
800054a6:	10 9c       	mov	r12,r8
800054a8:	30 08       	mov	r8,0
800054aa:	14 9b       	mov	r11,r10
800054ac:	48 66       	lddpc	r6,800054c4 <_lseek_r+0x24>
800054ae:	12 9a       	mov	r10,r9
800054b0:	8d 08       	st.w	r6[0x0],r8
800054b2:	c9 1e       	rcall	800051d4 <_lseek>
800054b4:	5b fc       	cp.w	r12,-1
800054b6:	c0 51       	brne	800054c0 <_lseek_r+0x20>
800054b8:	6c 08       	ld.w	r8,r6[0x0]
800054ba:	58 08       	cp.w	r8,0
800054bc:	ef f8 1a 03 	st.wne	r7[0xc],r8
800054c0:	d8 22       	popm	r4-r7,pc
800054c2:	d7 03       	nop
800054c4:	00 00       	add	r0,r0
800054c6:	0c c4       	st.b	r6++,r4

800054c8 <__smakebuf_r>:
800054c8:	d4 21       	pushm	r4-r7,lr
800054ca:	20 fd       	sub	sp,60
800054cc:	96 68       	ld.sh	r8,r11[0xc]
800054ce:	16 97       	mov	r7,r11
800054d0:	18 96       	mov	r6,r12
800054d2:	e2 18 00 02 	andl	r8,0x2,COH
800054d6:	c3 c1       	brne	8000554e <__smakebuf_r+0x86>
800054d8:	96 7b       	ld.sh	r11,r11[0xe]
800054da:	f0 0b 19 00 	cp.h	r11,r8
800054de:	c0 45       	brlt	800054e6 <__smakebuf_r+0x1e>
800054e0:	1a 9a       	mov	r10,sp
800054e2:	c6 3c       	rcall	800055a8 <_fstat_r>
800054e4:	c0 f4       	brge	80005502 <__smakebuf_r+0x3a>
800054e6:	8e 65       	ld.sh	r5,r7[0xc]
800054e8:	0a 98       	mov	r8,r5
800054ea:	ab b8       	sbr	r8,0xb
800054ec:	e2 15 00 80 	andl	r5,0x80,COH
800054f0:	ae 68       	st.h	r7[0xc],r8
800054f2:	30 04       	mov	r4,0
800054f4:	e0 68 04 00 	mov	r8,1024
800054f8:	f9 b5 01 40 	movne	r5,64
800054fc:	f0 05 17 00 	moveq	r5,r8
80005500:	c1 c8       	rjmp	80005538 <__smakebuf_r+0x70>
80005502:	40 18       	lddsp	r8,sp[0x4]
80005504:	e2 18 f0 00 	andl	r8,0xf000,COH
80005508:	e0 48 20 00 	cp.w	r8,8192
8000550c:	5f 04       	sreq	r4
8000550e:	e0 48 80 00 	cp.w	r8,32768
80005512:	c0 e1       	brne	8000552e <__smakebuf_r+0x66>
80005514:	6e b9       	ld.w	r9,r7[0x2c]
80005516:	fe c8 03 c2 	sub	r8,pc,962
8000551a:	10 39       	cp.w	r9,r8
8000551c:	c0 91       	brne	8000552e <__smakebuf_r+0x66>
8000551e:	8e 68       	ld.sh	r8,r7[0xc]
80005520:	e0 65 04 00 	mov	r5,1024
80005524:	ab a8       	sbr	r8,0xa
80005526:	ef 45 00 50 	st.w	r7[80],r5
8000552a:	ae 68       	st.h	r7[0xc],r8
8000552c:	c0 68       	rjmp	80005538 <__smakebuf_r+0x70>
8000552e:	8e 68       	ld.sh	r8,r7[0xc]
80005530:	e0 65 04 00 	mov	r5,1024
80005534:	ab b8       	sbr	r8,0xb
80005536:	ae 68       	st.h	r7[0xc],r8
80005538:	0a 9b       	mov	r11,r5
8000553a:	0c 9c       	mov	r12,r6
8000553c:	fe b0 fa 50 	rcall	800049dc <_malloc_r>
80005540:	8e 68       	ld.sh	r8,r7[0xc]
80005542:	c0 d1       	brne	8000555c <__smakebuf_r+0x94>
80005544:	ed b8 00 09 	bld	r8,0x9
80005548:	c1 a0       	breq	8000557c <__smakebuf_r+0xb4>
8000554a:	a1 b8       	sbr	r8,0x1
8000554c:	ae 68       	st.h	r7[0xc],r8
8000554e:	ee c8 ff b9 	sub	r8,r7,-71
80005552:	8f 48       	st.w	r7[0x10],r8
80005554:	8f 08       	st.w	r7[0x0],r8
80005556:	30 18       	mov	r8,1
80005558:	8f 58       	st.w	r7[0x14],r8
8000555a:	c1 18       	rjmp	8000557c <__smakebuf_r+0xb4>
8000555c:	a7 b8       	sbr	r8,0x7
8000555e:	8f 4c       	st.w	r7[0x10],r12
80005560:	ae 68       	st.h	r7[0xc],r8
80005562:	8f 55       	st.w	r7[0x14],r5
80005564:	fe c8 11 f0 	sub	r8,pc,4592
80005568:	8f 0c       	st.w	r7[0x0],r12
8000556a:	8d a8       	st.w	r6[0x28],r8
8000556c:	58 04       	cp.w	r4,0
8000556e:	c0 70       	breq	8000557c <__smakebuf_r+0xb4>
80005570:	8e 7c       	ld.sh	r12,r7[0xe]
80005572:	c3 de       	rcall	800051ec <isatty>
80005574:	c0 40       	breq	8000557c <__smakebuf_r+0xb4>
80005576:	8e 68       	ld.sh	r8,r7[0xc]
80005578:	a1 a8       	sbr	r8,0x0
8000557a:	ae 68       	st.h	r7[0xc],r8
8000557c:	2f 1d       	sub	sp,-60
8000557e:	d8 22       	popm	r4-r7,pc

80005580 <_read_r>:
80005580:	d4 21       	pushm	r4-r7,lr
80005582:	16 98       	mov	r8,r11
80005584:	18 97       	mov	r7,r12
80005586:	10 9c       	mov	r12,r8
80005588:	30 08       	mov	r8,0
8000558a:	14 9b       	mov	r11,r10
8000558c:	48 66       	lddpc	r6,800055a4 <_read_r+0x24>
8000558e:	12 9a       	mov	r10,r9
80005590:	8d 08       	st.w	r6[0x0],r8
80005592:	fe b0 f2 3d 	rcall	80003a0c <_read>
80005596:	5b fc       	cp.w	r12,-1
80005598:	c0 51       	brne	800055a2 <_read_r+0x22>
8000559a:	6c 08       	ld.w	r8,r6[0x0]
8000559c:	58 08       	cp.w	r8,0
8000559e:	ef f8 1a 03 	st.wne	r7[0xc],r8
800055a2:	d8 22       	popm	r4-r7,pc
800055a4:	00 00       	add	r0,r0
800055a6:	0c c4       	st.b	r6++,r4

800055a8 <_fstat_r>:
800055a8:	d4 21       	pushm	r4-r7,lr
800055aa:	16 98       	mov	r8,r11
800055ac:	18 97       	mov	r7,r12
800055ae:	10 9c       	mov	r12,r8
800055b0:	30 08       	mov	r8,0
800055b2:	48 66       	lddpc	r6,800055c8 <_fstat_r+0x20>
800055b4:	14 9b       	mov	r11,r10
800055b6:	8d 08       	st.w	r6[0x0],r8
800055b8:	c3 2e       	rcall	8000521c <_fstat>
800055ba:	5b fc       	cp.w	r12,-1
800055bc:	c0 51       	brne	800055c6 <_fstat_r+0x1e>
800055be:	6c 08       	ld.w	r8,r6[0x0]
800055c0:	58 08       	cp.w	r8,0
800055c2:	ef f8 1a 03 	st.wne	r7[0xc],r8
800055c6:	d8 22       	popm	r4-r7,pc
800055c8:	00 00       	add	r0,r0
800055ca:	0c c4       	st.b	r6++,r4

Disassembly of section .exception:

80005600 <_evba>:
80005600:	c0 08       	rjmp	80005600 <_evba>
	...

80005604 <_handle_TLB_Multiple_Hit>:
80005604:	c0 08       	rjmp	80005604 <_handle_TLB_Multiple_Hit>
	...

80005608 <_handle_Bus_Error_Data_Fetch>:
80005608:	c0 08       	rjmp	80005608 <_handle_Bus_Error_Data_Fetch>
	...

8000560c <_handle_Bus_Error_Instruction_Fetch>:
8000560c:	c0 08       	rjmp	8000560c <_handle_Bus_Error_Instruction_Fetch>
	...

80005610 <_handle_NMI>:
80005610:	c0 08       	rjmp	80005610 <_handle_NMI>
	...

80005614 <_handle_Instruction_Address>:
80005614:	c0 08       	rjmp	80005614 <_handle_Instruction_Address>
	...

80005618 <_handle_ITLB_Protection>:
80005618:	c0 08       	rjmp	80005618 <_handle_ITLB_Protection>
	...

8000561c <_handle_Breakpoint>:
8000561c:	c0 08       	rjmp	8000561c <_handle_Breakpoint>
	...

80005620 <_handle_Illegal_Opcode>:
80005620:	c0 08       	rjmp	80005620 <_handle_Illegal_Opcode>
	...

80005624 <_handle_Unimplemented_Instruction>:
80005624:	c0 08       	rjmp	80005624 <_handle_Unimplemented_Instruction>
	...

80005628 <_handle_Privilege_Violation>:
80005628:	c0 08       	rjmp	80005628 <_handle_Privilege_Violation>
	...

8000562c <_handle_Floating_Point>:
8000562c:	c0 08       	rjmp	8000562c <_handle_Floating_Point>
	...

80005630 <_handle_Coprocessor_Absent>:
80005630:	c0 08       	rjmp	80005630 <_handle_Coprocessor_Absent>
	...

80005634 <_handle_Data_Address_Read>:
80005634:	c0 08       	rjmp	80005634 <_handle_Data_Address_Read>
	...

80005638 <_handle_Data_Address_Write>:
80005638:	c0 08       	rjmp	80005638 <_handle_Data_Address_Write>
	...

8000563c <_handle_DTLB_Protection_Read>:
8000563c:	c0 08       	rjmp	8000563c <_handle_DTLB_Protection_Read>
	...

80005640 <_handle_DTLB_Protection_Write>:
80005640:	c0 08       	rjmp	80005640 <_handle_DTLB_Protection_Write>
	...

80005644 <_handle_DTLB_Modified>:
80005644:	c0 08       	rjmp	80005644 <_handle_DTLB_Modified>
	...

80005650 <_handle_ITLB_Miss>:
80005650:	c0 08       	rjmp	80005650 <_handle_ITLB_Miss>
	...

80005660 <_handle_DTLB_Miss_Read>:
80005660:	c0 08       	rjmp	80005660 <_handle_DTLB_Miss_Read>
	...

80005670 <_handle_DTLB_Miss_Write>:
80005670:	c0 08       	rjmp	80005670 <_handle_DTLB_Miss_Write>
	...

80005700 <_handle_Supervisor_Call>:
80005700:	c0 08       	rjmp	80005700 <_handle_Supervisor_Call>
80005702:	d7 03       	nop

80005704 <_int0>:
80005704:	30 0c       	mov	r12,0
80005706:	fe b0 e5 73 	rcall	800021ec <_get_interrupt_handler>
8000570a:	58 0c       	cp.w	r12,0
8000570c:	f8 0f 17 10 	movne	pc,r12
80005710:	d6 03       	rete

80005712 <_int1>:
80005712:	30 1c       	mov	r12,1
80005714:	fe b0 e5 6c 	rcall	800021ec <_get_interrupt_handler>
80005718:	58 0c       	cp.w	r12,0
8000571a:	f8 0f 17 10 	movne	pc,r12
8000571e:	d6 03       	rete

80005720 <_int2>:
80005720:	30 2c       	mov	r12,2
80005722:	fe b0 e5 65 	rcall	800021ec <_get_interrupt_handler>
80005726:	58 0c       	cp.w	r12,0
80005728:	f8 0f 17 10 	movne	pc,r12
8000572c:	d6 03       	rete

8000572e <_int3>:
8000572e:	30 3c       	mov	r12,3
80005730:	fe b0 e5 5e 	rcall	800021ec <_get_interrupt_handler>
80005734:	58 0c       	cp.w	r12,0
80005736:	f8 0f 17 10 	movne	pc,r12
8000573a:	d6 03       	rete

8000573c <ipr_val>:
8000573c:	00 00 01 04 40 00 01 12 80 00 01 20 c0 00 01 2e     ....@...... ....
8000574c:	d7 03 d7 03 d7 03 d7 03 d7 03 d7 03 d7 03 d7 03     ................
8000575c:	d7 03 d7 03 d7 03 d7 03 d7 03 d7 03 d7 03 d7 03     ................
8000576c:	d7 03 d7 03 d7 03 d7 03 d7 03 d7 03 d7 03 d7 03     ................
8000577c:	d7 03 d7 03 d7 03 d7 03 d7 03 d7 03 d7 03 d7 03     ................
8000578c:	d7 03 d7 03 d7 03 d7 03 d7 03 d7 03 d7 03 d7 03     ................
8000579c:	d7 03 d7 03 d7 03 d7 03 d7 03 d7 03 d7 03 d7 03     ................
800057ac:	d7 03 d7 03 d7 03 d7 03 d7 03 d7 03 d7 03 d7 03     ................
800057bc:	d7 03 d7 03 d7 03 d7 03 d7 03 d7 03 d7 03 d7 03     ................
800057cc:	d7 03 d7 03 d7 03 d7 03 d7 03 d7 03 d7 03 d7 03     ................
800057dc:	d7 03 d7 03 d7 03 d7 03 d7 03 d7 03 d7 03 d7 03     ................
800057ec:	d7 03 d7 03 d7 03 d7 03 d7 03 d7 03 d7 03 d7 03     ................
800057fc:	d7 03 d7 03                                         ....
